Certificate:
    Data:
        Version: 3 (0x2)
        Serial Number: 1 (0x1)
    Signature Algorithm: sha1WithRSAEncryption
        Issuer: C=BA, ST=RS, L=Banja Luka, O=Elektrotehnicki fakultet, OU=CA_NikolaBlagojevic, CN=RootCA/emailAddress=rootca@etfbl.net
        Validity
            Not Before: Feb 21 10:51:58 2019 GMT
            Not After : May 22 10:51:58 2019 GMT
        Subject: C=BA, ST=RS, O=Elektrotehnicki fakultet, OU=CA_NikolaBlagojevic, CN=user1/emailAddress=user1@gmail.com
        Subject Public Key Info:
            Public Key Algorithm: rsaEncryption
                Public-Key: (2048 bit)
                Modulus:
                    00:cc:b9:04:ae:67:7a:e3:5f:05:1f:36:dc:bc:f7:
                    82:ae:10:57:34:32:fb:0a:89:a2:26:fe:cf:7b:68:
                    85:5c:69:df:79:79:8d:69:a2:f7:4a:8a:32:c4:0d:
                    2b:ef:ec:c0:ab:93:70:a0:37:ee:4a:27:a8:06:7e:
                    c7:e0:03:da:30:63:3e:31:6b:38:35:64:e5:71:81:
                    ce:11:81:7e:79:b8:56:94:87:57:65:16:e8:57:47:
                    5c:0f:38:a4:6e:b8:bd:5a:25:91:c1:cd:39:af:7c:
                    a7:78:50:c6:3c:d2:ce:10:26:6a:5e:e9:fa:e2:b1:
                    59:3b:d3:a8:a6:2e:e5:a5:02:82:d1:aa:54:5e:3d:
                    20:58:fc:d3:f2:6a:7e:1a:66:fa:0f:6f:3b:eb:c4:
                    97:e2:5d:0e:b6:ce:bc:d5:ea:33:a6:ba:a2:35:8c:
                    ac:87:1e:a5:d6:90:85:f5:b0:4c:df:14:1d:e8:ec:
                    87:95:26:2a:f4:44:be:af:f4:bc:49:fd:01:db:b0:
                    c0:ac:23:17:c2:3e:9f:d5:9d:3a:f3:82:a4:7d:a3:
                    ec:25:bc:61:2b:54:43:e9:4a:5d:dc:4e:a5:8d:29:
                    d9:59:3b:8c:d5:e0:5f:68:cc:81:51:d6:df:fd:56:
                    91:02:0c:47:e4:b1:b8:3a:1e:13:d6:c0:68:2f:fe:
                    6a:bd
                Exponent: 65537 (0x10001)
        X509v3 extensions:
            X509v3 Basic Constraints: 
                CA:FALSE
            X509v3 Extended Key Usage: 
                TLS Web Client Authentication
            Netscape Comment: 
                OpenSSL Generated Certificate
            X509v3 Subject Key Identifier: 
                3B:E7:FE:1E:7D:48:37:7F:1C:9A:BB:D8:D7:74:BF:E2:F9:D1:02:06
            X509v3 Authority Key Identifier: 
                keyid:5C:5F:9A:CF:A4:11:1D:7B:B3:C7:00:D3:DA:54:57:54:52:48:50:53

            X509v3 CRL Distribution Points: 

                Full Name:
                  URI:http://192.168.21.89/rootcrl.pem

    Signature Algorithm: sha1WithRSAEncryption
         5e:3c:84:d1:7c:db:b0:14:33:12:4d:e6:59:f9:02:3d:dc:9e:
         2e:5b:ba:1b:fd:30:33:50:6d:7a:6a:1e:ad:af:74:99:00:95:
         c9:26:1c:e5:5f:d4:0c:a2:59:3b:76:bd:05:d7:b2:c4:e4:01:
         45:62:04:a2:9e:99:df:99:bd:d1:56:70:18:d5:e1:e7:72:96:
         f0:a4:bd:9d:72:50:42:28:4a:20:89:16:d8:03:0b:93:0a:9f:
         aa:54:c8:1f:29:7f:fa:ef:3e:3e:f6:99:12:ca:a6:1e:ad:95:
         c8:d3:36:f9:53:d5:6c:f5:38:6f:ca:d7:72:0a:ba:a4:41:6f:
         d8:65:2c:d6:e0:aa:e4:f3:3b:29:1b:2e:88:28:ae:ae:d5:1a:
         3b:12:1e:26:b1:71:b9:f6:a7:dc:6d:37:98:34:d8:cf:86:c6:
         4a:5d:72:99:23:af:b5:4e:4b:fc:77:e0:d7:9c:75:d9:fb:c8:
         40:16:ec:14:3d:5e:23:9c:fe:2b:9a:c1:e3:af:b9:39:a7:c7:
         fc:6d:db:2f:e0:d9:d5:6b:bd:bf:a5:bb:33:24:a1:c0:fa:15:
         32:c1:62:b6:68:81:fd:89:4e:60:e6:ca:a6:4e:ef:5c:10:8a:
         c7:cd:b7:59:66:28:2b:cc:2a:3c:7b:71:3c:de:b3:8d:86:28:
         9c:ee:a6:60:7b:e2:f4:15:11:ca:ce:7e:88:76:d0:82:50:28:
         e1:0c:15:2f:70:52:30:bc:14:6b:fa:bc:64:2c:b1:b0:3a:e0:
         e5:71:af:9d:25:75:65:94:63:f4:a7:cf:04:3e:1f:9a:d5:d2:
         65:ee:9c:01:1b:61:73:0c:0b:1c:e2:9b:3a:56:0e:41:92:1a:
         dc:3c:96:ae:f4:5a:eb:60:bd:61:23:c0:ef:e3:5c:43:e9:d0:
         86:18:ac:28:f0:08:0c:88:98:26:04:ad:f4:3a:26:67:7f:c9:
         50:42:df:31:d4:8a:9a:38:e3:c6:fd:52:f5:bc:a2:90:8b:3a:
         3a:82:76:b1:c1:b3:05:a2:54:93:e2:b2:9c:1a:4a:59:4b:4f:
         4f:62:b7:0d:dd:5b:83:8d:e5:2b:0c:ce:4a:1d:b2:11:db:b9:
         e1:a3:dc:67:ac:a5:31:e3:0e:2f:14:0a:0f:dd:c6:11:78:40:
         78:61:a0:8d:81:a8:b5:60:50:c4:56:14:50:fe:db:9d:23:d9:
         f6:e9:c9:55:35:50:82:92:92:30:31:77:1c:d4:cc:8c:f5:f0:
         af:9a:c0:61:fb:ab:7c:5a:d7:e9:4d:09:96:90:75:4f:db:19:
         74:f8:ce:99:5c:37:1a:5e:36:1c:25:58:d4:14:4d:01:3d:de:
         75:f4:7a:da:84:06:50:fd
-----BEGIN CERTIFICATE-----
MIIFbzCCA1egAwIBAgIBATANBgkqhkiG9w0BAQUFADCBojELMAkGA1UEBhMCQkEx
CzAJBgNVBAgTAlJTMRMwEQYDVQQHEwpCYW5qYSBMdWthMSEwHwYDVQQKExhFbGVr
dHJvdGVobmlja2kgZmFrdWx0ZXQxHDAaBgNVBAsUE0NBX05pa29sYUJsYWdvamV2
aWMxDzANBgNVBAMTBlJvb3RDQTEfMB0GCSqGSIb3DQEJARYQcm9vdGNhQGV0ZmJs
Lm5ldDAeFw0xOTAyMjExMDUxNThaFw0xOTA1MjIxMDUxNThaMIGLMQswCQYDVQQG
EwJCQTELMAkGA1UECBMCUlMxITAfBgNVBAoTGEVsZWt0cm90ZWhuaWNraSBmYWt1
bHRldDEcMBoGA1UECxQTQ0FfTmlrb2xhQmxhZ29qZXZpYzEOMAwGA1UEAxMFdXNl
cjExHjAcBgkqhkiG9w0BCQEWD3VzZXIxQGdtYWlsLmNvbTCCASIwDQYJKoZIhvcN
AQEBBQADggEPADCCAQoCggEBAMy5BK5neuNfBR823Lz3gq4QVzQy+wqJoib+z3to
hVxp33l5jWmi90qKMsQNK+/swKuTcKA37konqAZ+x+AD2jBjPjFrODVk5XGBzhGB
fnm4VpSHV2UW6FdHXA84pG64vVolkcHNOa98p3hQxjzSzhAmal7p+uKxWTvTqKYu
5aUCgtGqVF49IFj80/Jqfhpm+g9vO+vEl+JdDrbOvNXqM6a6ojWMrIcepdaQhfWw
TN8UHejsh5UmKvREvq/0vEn9AduwwKwjF8I+n9WdOvOCpH2j7CW8YStUQ+lKXdxO
pY0p2Vk7jNXgX2jMgVHW3/1WkQIMR+SxuDoeE9bAaC/+ar0CAwEAAaOBxDCBwTAJ
BgNVHRMEAjAAMBMGA1UdJQQMMAoGCCsGAQUFBwMCMCwGCWCGSAGG+EIBDQQfFh1P
cGVuU1NMIEdlbmVyYXRlZCBDZXJ0aWZpY2F0ZTAdBgNVHQ4EFgQUO+f+Hn1IN38c
mrvY13S/4vnRAgYwHwYDVR0jBBgwFoAUXF+az6QRHXuzxwDT2lRXVFJIUFMwMQYD
VR0fBCowKDAmoCSgIoYgaHR0cDovLzE5Mi4xNjguMjEuODkvcm9vdGNybC5wZW0w
DQYJKoZIhvcNAQEFBQADggIBAF48hNF827AUMxJN5ln5Aj3cni5buhv9MDNQbXpq
Hq2vdJkAlckmHOVf1AyiWTt2vQXXssTkAUViBKKemd+ZvdFWcBjV4edylvCkvZ1y
UEIoSiCJFtgDC5MKn6pUyB8pf/rvPj72mRLKph6tlcjTNvlT1Wz1OG/K13IKuqRB
b9hlLNbgquTzOykbLogorq7VGjsSHiaxcbn2p9xtN5g02M+Gxkpdcpkjr7VOS/x3
4Necddn7yEAW7BQ9XiOc/iuaweOvuTmnx/xt2y/g2dVrvb+luzMkocD6FTLBYrZo
gf2JTmDmyqZO71wQisfNt1lmKCvMKjx7cTzes42GKJzupmB74vQVEcrOfoh20IJQ
KOEMFS9wUjC8FGv6vGQssbA64OVxr50ldWWUY/SnzwQ+H5rV0mXunAEbYXMMCxzi
mzpWDkGSGtw8lq70WutgvWEjwO/jXEPp0IYYrCjwCAyImCYErfQ6Jmd/yVBC3zHU
ipo448b9UvW8opCLOjqCdrHBswWiVJPispwaSllLT09itw3dW4ON5SsMzkodshHb
ueGj3GespTHjDi8UCg/dxhF4QHhhoI2BqLVgUMRWFFD+250j2fbpyVU1UIKSkjAx
dxzUzIz18K+awGH7q3xa1+lNCZaQdU/bGXT4zplcNxpeNhwlWNQUTQE93nX0etqE
BlD9
-----END CERTIFICATE-----
