Certificate:
    Data:
        Version: 3 (0x2)
        Serial Number: 1 (0x1)
    Signature Algorithm: sha256WithRSAEncryption
        Issuer: C=BA, ST=RS, L=Banja Luka, O=Elektrotehnicki fakultet, OU=CA_NikolaBlagojevic, CN=ROOT/emailAddress=ROOT@etfbl.net
        Validity
            Not Before: Mar 20 07:16:22 2019 GMT
            Not After : Jun 18 07:16:22 2019 GMT
        Subject: C=BA, ST=RS, O=Elektrotehnicki fakultet, OU=CA_NikolaBlagojevic, CN=korisnik1/emailAddress=korisnik1@etfbl.net
        Subject Public Key Info:
            Public Key Algorithm: rsaEncryption
                Public-Key: (2048 bit)
                Modulus:
                    00:e3:7d:7d:6e:19:74:79:ee:50:fd:7d:6c:c8:4a:
                    bf:f1:f1:e7:70:78:83:ae:cf:38:82:56:dd:69:48:
                    c5:61:d9:93:38:59:9e:57:9c:f6:2f:24:e7:14:e8:
                    76:e6:cc:0a:a1:c8:05:cc:f3:10:bb:e6:b7:7d:ff:
                    53:f8:d6:cd:38:bd:94:49:bf:81:3d:b8:db:f8:64:
                    df:25:c2:2f:b7:63:d6:ee:70:8a:b4:3d:9f:e3:8b:
                    43:b3:dd:de:98:37:4b:f7:1c:c8:55:12:20:43:e0:
                    94:ec:5d:93:8f:41:8d:40:cc:d1:48:9a:46:f3:f2:
                    56:3a:7c:01:0f:f7:5a:8d:cc:f9:81:d6:55:ba:44:
                    91:84:6d:a0:7a:fc:d5:6d:b8:4b:40:28:3c:c6:82:
                    b8:be:80:67:79:44:cb:f4:eb:99:b3:3b:aa:95:1e:
                    5a:12:94:80:57:54:a4:0b:ef:8a:62:8b:46:23:f7:
                    1b:e4:ed:13:a3:cd:dd:36:15:4f:c2:4b:dd:7b:56:
                    67:60:f5:88:4a:a8:ec:85:36:67:59:75:f7:27:dc:
                    93:ac:d7:c6:fb:ba:9c:5b:b0:d7:f8:ad:48:0e:47:
                    47:72:48:9b:ae:68:8f:c4:33:63:43:73:25:d1:fa:
                    7b:2e:42:07:68:87:80:e4:5a:6b:b2:80:8e:75:37:
                    70:eb
                Exponent: 65537 (0x10001)
        X509v3 extensions:
            X509v3 Basic Constraints: 
                CA:FALSE
            X509v3 Key Usage: 
                Digital Signature, Non Repudiation, Data Encipherment
            X509v3 Extended Key Usage: 
                TLS Web Client Authentication
            Netscape Comment: 
                OpenSSL Generated Certificate
            X509v3 Subject Key Identifier: 
                86:7E:20:C3:41:44:F0:B6:41:F4:B2:62:85:C5:80:C0:21:65:96:EA
            X509v3 Authority Key Identifier: 
                keyid:6A:90:2C:0A:12:3D:C6:AE:E5:CC:8D:1C:50:11:91:93:5D:2E:0D:3E

            X509v3 CRL Distribution Points: 

                Full Name:
                  URI:http://192.168.21.89/rootcrl.pem

    Signature Algorithm: sha256WithRSAEncryption
         70:3c:69:19:ec:c3:47:5c:99:22:19:26:9d:81:50:a8:7d:1a:
         47:a9:17:15:00:68:29:1f:59:f5:ea:7e:38:a6:e3:af:9f:1e:
         4c:59:11:b1:7c:1b:55:5b:65:c2:70:a1:aa:98:60:59:aa:82:
         41:89:8c:5e:a1:b4:1a:5b:57:63:eb:bd:d8:64:0e:da:4c:78:
         06:3e:0c:97:8b:a2:d2:91:f9:b0:5e:91:d8:fb:4c:6d:7c:d6:
         c4:68:b7:d8:e2:32:a5:5d:c1:e1:89:1a:a5:47:6a:5a:0a:fc:
         7a:38:94:3b:4c:c5:b8:ec:17:0d:bb:d9:67:9d:bc:5e:51:56:
         94:fc:bd:f6:53:71:c8:62:83:c8:f5:65:e0:15:1a:e6:81:13:
         f4:b5:5d:e9:98:97:6f:18:76:c8:bd:6b:48:99:5e:0e:b9:84:
         8d:72:28:6c:3e:03:24:41:e7:ff:f0:36:b4:cf:2f:36:a4:29:
         6c:44:c8:29:c6:fb:32:50:ca:32:ac:85:ec:65:84:4f:24:ba:
         2b:2f:d9:68:84:d7:c8:ae:7f:20:18:f7:1c:c8:bc:3a:9e:73:
         ff:12:e9:cf:1c:b9:0e:f4:ac:72:98:9a:ca:d1:93:6f:97:1b:
         4f:d4:b7:f3:d3:11:65:03:67:7d:af:13:bd:3f:d6:a4:55:f8:
         2c:5f:bd:70:10:e7:d3:62:3f:38:6b:a6:ac:6c:b2:76:2a:3e:
         39:2f:33:a9:31:dd:80:28:73:2b:69:fa:32:ba:d6:ca:af:6d:
         ce:c5:7e:d8:76:0d:33:1a:18:1b:37:3e:7a:34:82:64:74:bc:
         de:29:d0:6a:fc:b4:70:fb:8a:0f:57:08:50:68:10:3d:f4:6b:
         0f:5e:65:18:9a:4d:64:94:df:49:b8:b1:8b:46:f0:cc:dd:f5:
         9e:47:81:2d:99:22:39:d0:94:b0:22:73:42:01:6e:ea:9e:8f:
         78:a9:94:c4:89:02:f5:60:0d:e4:ef:b5:06:a7:ec:01:a6:56:
         0b:36:32:2a:6a:20:81:d8:61:9a:0f:49:0c:50:5d:17:cd:49:
         2a:ab:e6:a8:f5:2f:6c:5b:6a:69:91:84:80:bc:89:40:64:40:
         e0:e5:18:b5:83:35:84:35:90:54:99:74:0e:d2:28:32:25:a3:
         40:ec:c7:97:b1:67:14:09:7e:d5:ba:99:0c:69:d6:47:3a:06:
         17:f7:7c:14:c4:cb:a4:62:9c:f7:52:20:32:d0:17:cd:3e:b6:
         2c:0d:da:b8:a0:65:64:54:d6:96:7f:1b:ea:c0:7d:7c:0c:77:
         49:77:b5:fd:82:4a:17:67:2a:01:6d:f1:5d:ec:24:1a:51:be:
         b7:b3:89:97:37:d8:2e:6c
-----BEGIN CERTIFICATE-----
MIIFgDCCA2igAwIBAgIBATANBgkqhkiG9w0BAQsFADCBnjELMAkGA1UEBhMCQkEx
CzAJBgNVBAgTAlJTMRMwEQYDVQQHEwpCYW5qYSBMdWthMSEwHwYDVQQKExhFbGVr
dHJvdGVobmlja2kgZmFrdWx0ZXQxHDAaBgNVBAsUE0NBX05pa29sYUJsYWdvamV2
aWMxDTALBgNVBAMTBFJPT1QxHTAbBgkqhkiG9w0BCQEWDlJPT1RAZXRmYmwubmV0
MB4XDTE5MDMyMDA3MTYyMloXDTE5MDYxODA3MTYyMlowgZMxCzAJBgNVBAYTAkJB
MQswCQYDVQQIEwJSUzEhMB8GA1UEChMYRWxla3Ryb3RlaG5pY2tpIGZha3VsdGV0
MRwwGgYDVQQLFBNDQV9OaWtvbGFCbGFnb2pldmljMRIwEAYDVQQDEwlrb3Jpc25p
azExIjAgBgkqhkiG9w0BCQEWE2tvcmlzbmlrMUBldGZibC5uZXQwggEiMA0GCSqG
SIb3DQEBAQUAA4IBDwAwggEKAoIBAQDjfX1uGXR57lD9fWzISr/x8edweIOuzziC
Vt1pSMVh2ZM4WZ5XnPYvJOcU6HbmzAqhyAXM8xC75rd9/1P41s04vZRJv4E9uNv4
ZN8lwi+3Y9bucIq0PZ/ji0Oz3d6YN0v3HMhVEiBD4JTsXZOPQY1AzNFImkbz8lY6
fAEP91qNzPmB1lW6RJGEbaB6/NVtuEtAKDzGgri+gGd5RMv065mzO6qVHloSlIBX
VKQL74pii0Yj9xvk7ROjzd02FU/CS917Vmdg9YhKqOyFNmdZdfcn3JOs18b7upxb
sNf4rUgOR0dySJuuaI/EM2NDcyXR+nsuQgdoh4DkWmuygI51N3DrAgMBAAGjgdEw
gc4wCQYDVR0TBAIwADALBgNVHQ8EBAMCBNAwEwYDVR0lBAwwCgYIKwYBBQUHAwIw
LAYJYIZIAYb4QgENBB8WHU9wZW5TU0wgR2VuZXJhdGVkIENlcnRpZmljYXRlMB0G
A1UdDgQWBBSGfiDDQUTwtkH0smKFxYDAIWWW6jAfBgNVHSMEGDAWgBRqkCwKEj3G
ruXMjRxQEZGTXS4NPjAxBgNVHR8EKjAoMCagJKAihiBodHRwOi8vMTkyLjE2OC4y
MS44OS9yb290Y3JsLnBlbTANBgkqhkiG9w0BAQsFAAOCAgEAcDxpGezDR1yZIhkm
nYFQqH0aR6kXFQBoKR9Z9ep+OKbjr58eTFkRsXwbVVtlwnChqphgWaqCQYmMXqG0
GltXY+u92GQO2kx4Bj4Ml4ui0pH5sF6R2PtMbXzWxGi32OIypV3B4YkapUdqWgr8
ejiUO0zFuOwXDbvZZ528XlFWlPy99lNxyGKDyPVl4BUa5oET9LVd6ZiXbxh2yL1r
SJleDrmEjXIobD4DJEHn//A2tM8vNqQpbETIKcb7MlDKMqyF7GWETyS6Ky/ZaITX
yK5/IBj3HMi8Op5z/xLpzxy5DvSscpiaytGTb5cbT9S389MRZQNnfa8TvT/WpFX4
LF+9cBDn02I/OGumrGyydio+OS8zqTHdgChzK2n6MrrWyq9tzsV+2HYNMxoYGzc+
ejSCZHS83inQavy0cPuKD1cIUGgQPfRrD15lGJpNZJTfSbixi0bwzN31nkeBLZki
OdCUsCJzQgFu6p6PeKmUxIkC9WAN5O+1BqfsAaZWCzYyKmoggdhhmg9JDFBdF81J
KqvmqPUvbFtqaZGEgLyJQGRA4OUYtYM1hDWQVJl0DtIoMiWjQOzHl7FnFAl+1bqZ
DGnWRzoGF/d8FMTLpGKc91IgMtAXzT62LA3auKBlZFTWln8b6sB9fAx3SXe1/YJK
F2cqAW3xXewkGlG+t7OJlzfYLmw=
-----END CERTIFICATE-----
