Certificate:
    Data:
        Version: 3 (0x2)
        Serial Number: 2 (0x2)
    Signature Algorithm: sha256WithRSAEncryption
        Issuer: C=BA, ST=RS, L=Banja Luka, O=Elektrotehnicki fakultet, OU=CA_NikolaBlagojevic, CN=ROOT/emailAddress=ROOT@etfbl.net
        Validity
            Not Before: Aug  9 13:32:29 2019 GMT
            Not After : Nov  7 13:32:29 2019 GMT
        Subject: C=BA, ST=RS, O=Elektrotehnicki fakultet, OU=CA_NikolaBlagojevic, CN=Korisnik2/emailAddress=korisnik2@gmail.com
        Subject Public Key Info:
            Public Key Algorithm: rsaEncryption
                Public-Key: (2048 bit)
                Modulus:
                    00:a9:fa:1b:c0:8c:18:dc:28:34:70:e5:8a:ff:2f:
                    51:e8:97:73:72:76:26:e6:3b:27:05:18:c4:f1:bd:
                    42:1a:92:31:d0:b6:7a:b0:60:4b:c3:7c:c4:1b:a6:
                    7e:1a:01:68:d6:c5:cc:fa:1b:13:af:69:b4:e6:5c:
                    de:9d:85:b1:80:c6:12:50:1e:2f:52:e6:a8:af:f9:
                    a2:3d:88:00:a1:80:03:42:aa:44:a6:42:0b:78:9d:
                    de:1c:19:91:5e:c5:5c:7a:df:ea:17:70:5b:ad:fa:
                    26:9b:39:e2:d5:6f:e5:4e:9d:16:1f:90:4f:61:84:
                    1b:cd:4d:d9:32:51:3a:f6:c4:e6:1f:1e:58:92:2a:
                    bc:d0:3d:54:23:09:ef:5f:b7:71:63:21:05:a6:a9:
                    40:1f:48:58:f7:bd:0a:2c:b7:74:6f:2b:56:a5:78:
                    02:e2:d3:9b:35:dc:0b:69:f2:f6:28:54:22:14:93:
                    6c:55:9e:b0:ff:2b:ca:1d:65:67:fb:03:7f:8d:31:
                    8b:4c:db:4b:3e:a1:16:65:18:88:85:61:2d:10:fa:
                    16:24:10:2f:d1:19:3e:b7:d1:8a:ba:4b:66:6e:f2:
                    7d:41:c0:2c:7b:6b:6a:72:e3:ef:bd:bb:6a:4e:d6:
                    d3:9e:37:72:50:b8:d8:76:35:56:14:5b:3c:97:7c:
                    08:7f
                Exponent: 65537 (0x10001)
        X509v3 extensions:
            X509v3 Basic Constraints: 
                CA:FALSE
            X509v3 Key Usage: 
                Digital Signature, Non Repudiation, Data Encipherment
            X509v3 Extended Key Usage: 
                TLS Web Client Authentication
            Netscape Comment: 
                OpenSSL Generated Certificate
            X509v3 Subject Key Identifier: 
                B1:F4:F6:18:FF:82:1C:1E:50:5F:69:34:E7:0E:97:80:19:40:72:75
            X509v3 Authority Key Identifier: 
                keyid:6A:90:2C:0A:12:3D:C6:AE:E5:CC:8D:1C:50:11:91:93:5D:2E:0D:3E

            X509v3 CRL Distribution Points: 

                Full Name:
                  URI:http://192.168.21.89/rootcrl.pem

    Signature Algorithm: sha256WithRSAEncryption
         62:38:05:90:aa:e2:ea:d3:bb:cf:7d:31:d9:b6:37:27:d5:d4:
         0c:9c:3f:a3:8c:1e:81:25:71:e1:da:56:49:b4:9c:7a:d8:ec:
         e0:c8:db:75:e7:f0:41:82:67:bd:06:1b:9c:7c:28:70:e4:db:
         95:27:73:ca:49:76:52:98:b9:1b:15:7e:cd:d0:66:0b:7c:80:
         3a:10:ae:c0:8a:3b:7a:66:d0:40:e0:7d:af:ee:23:fc:0c:8d:
         49:0e:6d:24:b1:80:0e:f3:94:94:aa:bd:9e:79:71:7d:d9:9c:
         0a:e2:98:26:7c:04:b8:ea:6a:9b:89:f0:97:b7:63:28:6d:4e:
         8b:82:35:33:ae:5c:9b:8f:3c:c5:bb:96:bf:bd:09:e1:a2:78:
         65:dc:d6:0c:35:db:be:98:7e:25:45:85:6b:43:d6:37:cc:c8:
         0a:ac:de:32:36:45:a7:4f:34:3d:4d:30:b0:ee:cb:d4:d4:c3:
         cb:53:9e:c1:7b:f7:7b:c4:43:9a:04:9d:9f:ef:f6:f5:24:e5:
         f7:92:a6:20:84:85:ab:11:7a:0a:9b:e5:d4:d0:d8:bc:e2:65:
         d8:9d:36:5d:73:36:25:cf:a6:19:6a:7e:7e:01:d3:76:49:9a:
         51:f2:42:6d:b0:9c:9c:05:47:4a:dc:fa:46:cc:ef:b2:41:fb:
         6f:46:6a:41:60:7f:19:20:1b:e0:e8:3a:0d:c7:c8:f6:de:0d:
         fa:47:66:f0:9b:1a:64:f9:54:df:e2:fb:84:c3:14:f2:bb:94:
         88:b0:80:06:69:95:29:5b:d9:b2:14:54:6f:f2:94:14:e0:00:
         44:b5:04:59:8a:fd:e0:ad:63:8c:76:31:6a:21:66:c4:73:ce:
         58:4e:9f:2d:b6:8d:07:d9:66:a3:78:08:a2:a1:bc:52:08:3b:
         5a:96:cf:34:e3:f7:17:5f:2e:02:2c:37:82:b9:de:c1:48:d0:
         45:42:51:20:c5:01:c9:c1:3d:d3:76:58:1c:22:a5:6c:f8:c4:
         b0:dc:f7:18:74:c9:c1:a6:11:05:8a:20:f8:a5:0d:dd:64:bc:
         b8:bc:44:72:06:36:a9:10:bf:78:4b:38:b5:c4:d5:2f:b6:0f:
         e8:60:79:fd:8e:7b:7c:0a:7a:ab:fa:ab:5c:d9:9d:4b:d1:31:
         63:f7:1d:b7:30:35:1c:2d:7b:ed:d2:c0:d8:1c:83:2e:c2:44:
         84:5b:16:a1:25:ed:e6:07:d2:80:b5:5a:b8:29:bc:6a:69:2f:
         f4:25:a6:69:88:c6:92:cb:30:fc:3f:0d:a4:0c:03:cd:43:7d:
         3f:55:af:7f:f7:f0:8d:99:00:0e:fd:76:45:12:aa:92:34:06:
         8e:d8:24:93:8b:d2:b3:36
-----BEGIN CERTIFICATE-----
MIIFgDCCA2igAwIBAgIBAjANBgkqhkiG9w0BAQsFADCBnjELMAkGA1UEBhMCQkEx
CzAJBgNVBAgTAlJTMRMwEQYDVQQHEwpCYW5qYSBMdWthMSEwHwYDVQQKExhFbGVr
dHJvdGVobmlja2kgZmFrdWx0ZXQxHDAaBgNVBAsUE0NBX05pa29sYUJsYWdvamV2
aWMxDTALBgNVBAMTBFJPT1QxHTAbBgkqhkiG9w0BCQEWDlJPT1RAZXRmYmwubmV0
MB4XDTE5MDgwOTEzMzIyOVoXDTE5MTEwNzEzMzIyOVowgZMxCzAJBgNVBAYTAkJB
MQswCQYDVQQIEwJSUzEhMB8GA1UEChMYRWxla3Ryb3RlaG5pY2tpIGZha3VsdGV0
MRwwGgYDVQQLFBNDQV9OaWtvbGFCbGFnb2pldmljMRIwEAYDVQQDEwlLb3Jpc25p
azIxIjAgBgkqhkiG9w0BCQEWE2tvcmlzbmlrMkBnbWFpbC5jb20wggEiMA0GCSqG
SIb3DQEBAQUAA4IBDwAwggEKAoIBAQCp+hvAjBjcKDRw5Yr/L1Hol3NydibmOycF
GMTxvUIakjHQtnqwYEvDfMQbpn4aAWjWxcz6GxOvabTmXN6dhbGAxhJQHi9S5qiv
+aI9iAChgANCqkSmQgt4nd4cGZFexVx63+oXcFut+iabOeLVb+VOnRYfkE9hhBvN
TdkyUTr2xOYfHliSKrzQPVQjCe9ft3FjIQWmqUAfSFj3vQost3RvK1aleALi05s1
3Atp8vYoVCIUk2xVnrD/K8odZWf7A3+NMYtM20s+oRZlGIiFYS0Q+hYkEC/RGT63
0Yq6S2Zu8n1BwCx7a2py4++9u2pO1tOeN3JQuNh2NVYUWzyXfAh/AgMBAAGjgdEw
gc4wCQYDVR0TBAIwADALBgNVHQ8EBAMCBNAwEwYDVR0lBAwwCgYIKwYBBQUHAwIw
LAYJYIZIAYb4QgENBB8WHU9wZW5TU0wgR2VuZXJhdGVkIENlcnRpZmljYXRlMB0G
A1UdDgQWBBSx9PYY/4IcHlBfaTTnDpeAGUBydTAfBgNVHSMEGDAWgBRqkCwKEj3G
ruXMjRxQEZGTXS4NPjAxBgNVHR8EKjAoMCagJKAihiBodHRwOi8vMTkyLjE2OC4y
MS44OS9yb290Y3JsLnBlbTANBgkqhkiG9w0BAQsFAAOCAgEAYjgFkKri6tO7z30x
2bY3J9XUDJw/o4wegSVx4dpWSbScetjs4MjbdefwQYJnvQYbnHwocOTblSdzykl2
Upi5GxV+zdBmC3yAOhCuwIo7embQQOB9r+4j/AyNSQ5tJLGADvOUlKq9nnlxfdmc
CuKYJnwEuOpqm4nwl7djKG1Oi4I1M65cm488xbuWv70J4aJ4ZdzWDDXbvph+JUWF
a0PWN8zICqzeMjZFp080PU0wsO7L1NTDy1OewXv3e8RDmgSdn+/29STl95KmIISF
qxF6Cpvl1NDYvOJl2J02XXM2Jc+mGWp+fgHTdkmaUfJCbbCcnAVHStz6RszvskH7
b0ZqQWB/GSAb4Og6DcfI9t4N+kdm8JsaZPlU3+L7hMMU8ruUiLCABmmVKVvZshRU
b/KUFOAARLUEWYr94K1jjHYxaiFmxHPOWE6fLbaNB9lmo3gIoqG8Ugg7WpbPNOP3
F18uAiw3grnewUjQRUJRIMUBycE903ZYHCKlbPjEsNz3GHTJwaYRBYog+KUN3WS8
uLxEcgY2qRC/eEs4tcTVL7YP6GB5/Y57fAp6q/qrXNmdS9ExY/cdtzA1HC177dLA
2ByDLsJEhFsWoSXt5gfSgLVauCm8amkv9CWmaYjGkssw/D8NpAwDzUN9P1Wvf/fw
jZkADv12RRKqkjQGjtgkk4vSszY=
-----END CERTIFICATE-----
