Certificate:
    Data:
        Version: 3 (0x2)
        Serial Number: 3 (0x3)
    Signature Algorithm: sha256WithRSAEncryption
        Issuer: C=BA, ST=RS, L=Banja Luka, O=Elektrotehnicki fakultet, OU=CA_NikolaBlagojevic, CN=ROOT/emailAddress=ROOT@etfbl.net
        Validity
            Not Before: Aug  9 13:33:31 2019 GMT
            Not After : Nov  7 13:33:31 2019 GMT
        Subject: C=BA, ST=RS, O=Elektrotehnicki fakultet, OU=CA_NikolaBlagojevic, CN=Korisnik3/emailAddress=korisnik3@gmail.com
        Subject Public Key Info:
            Public Key Algorithm: rsaEncryption
                Public-Key: (2048 bit)
                Modulus:
                    00:c3:5e:bb:b5:39:6b:04:d0:62:0d:74:72:05:f2:
                    66:e8:a5:eb:8b:e7:99:74:cf:b5:62:67:1a:34:dd:
                    a1:d6:66:6a:81:87:73:4e:c2:80:fc:31:f0:7f:4d:
                    e7:14:ee:67:45:57:b2:ca:8f:18:8d:2a:44:a5:96:
                    e4:08:72:ea:1a:00:59:03:92:76:fc:ec:7c:36:9c:
                    c1:5e:25:37:52:49:83:cd:87:d5:41:12:04:29:80:
                    49:63:02:6a:2b:75:dd:dd:59:05:ab:9f:22:81:eb:
                    22:8a:ba:ff:47:2a:63:6b:4e:b9:ca:31:c4:30:45:
                    0d:b8:9d:4d:5e:1e:0a:8d:54:6d:55:1c:1c:ee:74:
                    35:b9:21:63:90:97:33:54:e7:89:80:80:f6:b8:3e:
                    f2:b8:fc:b5:4c:e5:b4:39:57:f1:90:6e:1e:ae:32:
                    54:44:2c:82:35:91:c0:50:22:69:ef:c9:64:c6:e0:
                    42:3b:df:75:e8:87:b4:f1:52:4c:32:30:c9:3f:83:
                    27:8b:0b:8e:1c:a1:68:bf:bc:0e:f2:59:c3:a7:b0:
                    1d:f4:79:34:f1:a3:02:2d:4a:f9:1d:b8:8a:b3:fd:
                    61:5d:de:69:b6:ea:e3:68:1c:f5:14:cb:81:9a:af:
                    e6:da:ef:c6:78:f1:ed:1d:34:0c:f8:f2:8f:ce:5e:
                    1c:4d
                Exponent: 65537 (0x10001)
        X509v3 extensions:
            X509v3 Basic Constraints: 
                CA:FALSE
            X509v3 Key Usage: 
                Digital Signature, Non Repudiation, Data Encipherment
            X509v3 Extended Key Usage: 
                TLS Web Client Authentication
            Netscape Comment: 
                OpenSSL Generated Certificate
            X509v3 Subject Key Identifier: 
                11:60:97:34:6F:AF:DD:C8:8A:2F:99:12:E8:79:5B:2C:2E:95:C9:90
            X509v3 Authority Key Identifier: 
                keyid:6A:90:2C:0A:12:3D:C6:AE:E5:CC:8D:1C:50:11:91:93:5D:2E:0D:3E

            X509v3 CRL Distribution Points: 

                Full Name:
                  URI:http://192.168.21.89/rootcrl.pem

    Signature Algorithm: sha256WithRSAEncryption
         00:67:dd:87:db:a6:30:c9:94:f5:5c:d9:0c:01:aa:65:eb:03:
         8a:ec:a2:2d:35:42:8e:24:ad:46:d5:28:4a:53:fd:2e:3b:34:
         e0:d0:a6:5a:49:84:5c:d9:bb:29:97:27:22:bd:e8:68:60:ac:
         ad:a2:59:f0:ca:4d:fb:f4:a1:95:b9:01:e0:c4:8f:66:11:69:
         51:11:83:29:65:f9:e0:29:72:88:f3:00:5f:50:e5:84:0b:53:
         b3:51:a8:50:f8:91:d2:f1:74:c3:16:e8:65:27:78:f9:0e:30:
         b3:de:6d:1c:6e:61:4c:e0:f8:f9:7e:5f:3d:16:e6:07:61:e0:
         61:0c:b8:7e:6c:79:d1:80:92:43:6b:78:bd:cf:d4:1e:0f:24:
         a2:a1:5a:57:c7:5d:31:96:6e:7d:f3:a9:2d:7d:ba:ac:21:4d:
         fd:7c:de:f5:81:a6:21:01:88:dc:c3:b3:e7:6c:42:44:7e:91:
         f5:50:96:95:d7:42:27:ca:dd:c5:46:ee:01:8d:96:4c:1e:5c:
         bf:fb:f8:46:54:59:e8:d0:97:e5:8c:9f:b9:d2:8c:9a:7c:58:
         45:82:2f:10:bd:c4:75:d5:63:44:a0:7a:fc:14:0e:a5:33:6a:
         ce:c4:40:9e:1f:27:4c:c0:2c:a1:d1:7a:a8:71:d9:87:ce:31:
         02:20:f3:dc:37:1b:73:d8:c8:b8:74:3c:0d:6a:47:1d:f5:3b:
         7c:13:1a:bf:fd:12:15:07:03:e0:cb:da:7b:c2:f6:8d:28:20:
         49:41:50:5d:75:fe:72:2e:7a:d1:15:75:d4:b2:ad:38:52:c5:
         92:11:d0:63:14:f8:b0:66:67:0c:f3:8e:2f:54:08:04:4e:5a:
         ea:32:f3:c3:6c:fc:8d:fa:f7:6c:78:ba:26:3d:42:77:2a:e0:
         e6:af:3a:c7:cf:cd:c0:a4:a0:67:cc:cb:81:4d:f9:ae:68:81:
         4d:ef:c5:ad:27:0d:2b:a5:b5:e6:53:50:98:d0:ef:16:ef:9b:
         2b:6e:7d:90:e6:ee:c5:10:ec:da:9d:57:21:6a:a4:1a:45:30:
         03:03:7f:02:49:e6:0f:52:28:66:d1:57:df:c5:bd:a7:86:78:
         b6:1e:e2:14:1f:cf:62:68:28:d5:9c:da:7b:c9:86:34:6d:27:
         84:9b:d6:eb:e8:8a:b1:c1:d9:58:e3:a6:2e:e1:ec:ed:4f:80:
         01:2c:2f:37:a2:38:62:7d:54:0a:bd:5a:86:eb:2b:a9:60:cf:
         d0:7b:db:7c:7e:c1:12:c8:9f:f7:d3:4b:69:84:bd:bd:ed:83:
         6f:04:89:2a:4b:8d:10:97:ef:32:af:22:27:fc:ea:a4:9e:56:
         df:a1:2f:b6:41:fd:48:fe
-----BEGIN CERTIFICATE-----
MIIFgDCCA2igAwIBAgIBAzANBgkqhkiG9w0BAQsFADCBnjELMAkGA1UEBhMCQkEx
CzAJBgNVBAgTAlJTMRMwEQYDVQQHEwpCYW5qYSBMdWthMSEwHwYDVQQKExhFbGVr
dHJvdGVobmlja2kgZmFrdWx0ZXQxHDAaBgNVBAsUE0NBX05pa29sYUJsYWdvamV2
aWMxDTALBgNVBAMTBFJPT1QxHTAbBgkqhkiG9w0BCQEWDlJPT1RAZXRmYmwubmV0
MB4XDTE5MDgwOTEzMzMzMVoXDTE5MTEwNzEzMzMzMVowgZMxCzAJBgNVBAYTAkJB
MQswCQYDVQQIEwJSUzEhMB8GA1UEChMYRWxla3Ryb3RlaG5pY2tpIGZha3VsdGV0
MRwwGgYDVQQLFBNDQV9OaWtvbGFCbGFnb2pldmljMRIwEAYDVQQDEwlLb3Jpc25p
azMxIjAgBgkqhkiG9w0BCQEWE2tvcmlzbmlrM0BnbWFpbC5jb20wggEiMA0GCSqG
SIb3DQEBAQUAA4IBDwAwggEKAoIBAQDDXru1OWsE0GINdHIF8mbopeuL55l0z7Vi
Zxo03aHWZmqBh3NOwoD8MfB/TecU7mdFV7LKjxiNKkSlluQIcuoaAFkDknb87Hw2
nMFeJTdSSYPNh9VBEgQpgEljAmordd3dWQWrnyKB6yKKuv9HKmNrTrnKMcQwRQ24
nU1eHgqNVG1VHBzudDW5IWOQlzNU54mAgPa4PvK4/LVM5bQ5V/GQbh6uMlRELII1
kcBQImnvyWTG4EI733Xoh7TxUkwyMMk/gyeLC44coWi/vA7yWcOnsB30eTTxowIt
SvkduIqz/WFd3mm26uNoHPUUy4Gar+ba78Z48e0dNAz48o/OXhxNAgMBAAGjgdEw
gc4wCQYDVR0TBAIwADALBgNVHQ8EBAMCBNAwEwYDVR0lBAwwCgYIKwYBBQUHAwIw
LAYJYIZIAYb4QgENBB8WHU9wZW5TU0wgR2VuZXJhdGVkIENlcnRpZmljYXRlMB0G
A1UdDgQWBBQRYJc0b6/dyIovmRLoeVssLpXJkDAfBgNVHSMEGDAWgBRqkCwKEj3G
ruXMjRxQEZGTXS4NPjAxBgNVHR8EKjAoMCagJKAihiBodHRwOi8vMTkyLjE2OC4y
MS44OS9yb290Y3JsLnBlbTANBgkqhkiG9w0BAQsFAAOCAgEAAGfdh9umMMmU9VzZ
DAGqZesDiuyiLTVCjiStRtUoSlP9Ljs04NCmWkmEXNm7KZcnIr3oaGCsraJZ8MpN
+/ShlbkB4MSPZhFpURGDKWX54ClyiPMAX1DlhAtTs1GoUPiR0vF0wxboZSd4+Q4w
s95tHG5hTOD4+X5fPRbmB2HgYQy4fmx50YCSQ2t4vc/UHg8koqFaV8ddMZZuffOp
LX26rCFN/Xze9YGmIQGI3MOz52xCRH6R9VCWlddCJ8rdxUbuAY2WTB5cv/v4RlRZ
6NCX5YyfudKMmnxYRYIvEL3EddVjRKB6/BQOpTNqzsRAnh8nTMAsodF6qHHZh84x
AiDz3Dcbc9jIuHQ8DWpHHfU7fBMav/0SFQcD4Mvae8L2jSggSUFQXXX+ci560RV1
1LKtOFLFkhHQYxT4sGZnDPOOL1QIBE5a6jLzw2z8jfr3bHi6Jj1Cdyrg5q86x8/N
wKSgZ8zLgU35rmiBTe/FrScNK6W15lNQmNDvFu+bK259kObuxRDs2p1XIWqkGkUw
AwN/AknmD1IoZtFX38W9p4Z4th7iFB/PYmgo1Zzae8mGNG0nhJvW6+iKscHZWOOm
LuHs7U+AASwvN6I4Yn1UCr1ahusrqWDP0HvbfH7BEsif99NLaYS9ve2DbwSJKkuN
EJfvMq8iJ/zqpJ5W36EvtkH9SP4=
-----END CERTIFICATE-----
