Certificate:
    Data:
        Version: 3 (0x2)
        Serial Number: 4 (0x4)
    Signature Algorithm: sha256WithRSAEncryption
        Issuer: C=BA, ST=RS, L=Banja Luka, O=Elektrotehnicki fakultet, OU=CA_NikolaBlagojevic, CN=ROOT/emailAddress=ROOT@etfbl.net
        Validity
            Not Before: Aug  9 13:34:06 2019 GMT
            Not After : Nov  7 13:34:06 2019 GMT
        Subject: C=BA, ST=RS, O=Elektrotehnicki fakultet, OU=CA_NikolaBlagojevic, CN=Korisnik4/emailAddress=korisnik4@gmail.com
        Subject Public Key Info:
            Public Key Algorithm: rsaEncryption
                Public-Key: (2048 bit)
                Modulus:
                    00:ba:a6:c1:04:9b:46:50:79:78:07:d0:69:cf:17:
                    96:3a:05:d7:8e:1a:46:1c:b1:c0:f1:d6:f6:67:6b:
                    72:2a:d1:87:67:42:14:27:4e:cb:71:03:1d:78:21:
                    f8:b1:01:14:9e:b7:20:bf:90:0b:f3:47:0a:92:a5:
                    72:a2:a1:15:be:15:4c:73:ed:bf:23:78:ee:ca:2a:
                    8c:c9:99:34:1a:d5:c0:cf:be:cd:f3:11:6a:1f:36:
                    29:41:43:b4:a0:7b:89:30:69:b1:d3:f5:37:ca:46:
                    fe:de:24:db:49:f8:bb:7f:8d:63:85:80:81:a9:c8:
                    d6:2f:89:3e:83:74:1b:93:15:a6:7c:8f:98:cf:d9:
                    12:94:e5:d3:60:b8:92:52:bb:db:67:91:d2:fd:fe:
                    0c:79:ea:31:51:53:31:56:83:39:b6:78:74:c9:9d:
                    53:1a:a6:34:e3:f8:ca:9f:a7:59:44:48:37:c8:c4:
                    e3:6f:71:44:f3:94:94:5b:a5:ae:fa:d3:d4:51:b8:
                    44:15:a4:9c:c1:f7:d3:99:0e:0e:9d:1b:89:0f:58:
                    37:de:4a:5e:37:cf:8f:be:b7:5f:45:af:35:c7:ef:
                    64:07:f3:b8:4a:31:7a:96:d0:02:f1:c8:d4:27:17:
                    d8:59:da:3d:ae:88:6d:b5:2f:80:86:1d:b8:e1:11:
                    5f:ff
                Exponent: 65537 (0x10001)
        X509v3 extensions:
            X509v3 Basic Constraints: 
                CA:FALSE
            X509v3 Key Usage: 
                Digital Signature, Non Repudiation, Data Encipherment
            X509v3 Extended Key Usage: 
                TLS Web Client Authentication
            Netscape Comment: 
                OpenSSL Generated Certificate
            X509v3 Subject Key Identifier: 
                D9:DE:D1:F3:19:BA:DC:C5:06:A6:BE:1F:15:4D:2D:76:65:01:48:49
            X509v3 Authority Key Identifier: 
                keyid:6A:90:2C:0A:12:3D:C6:AE:E5:CC:8D:1C:50:11:91:93:5D:2E:0D:3E

            X509v3 CRL Distribution Points: 

                Full Name:
                  URI:http://192.168.21.89/rootcrl.pem

    Signature Algorithm: sha256WithRSAEncryption
         4b:a8:ac:e6:76:75:6a:f0:e9:5f:e4:a9:09:b0:e9:1b:6b:18:
         ff:48:17:09:9e:14:c4:00:c4:a0:b7:ba:3f:6b:80:ea:6b:79:
         e8:e8:a0:74:8a:aa:cd:ff:4c:c3:ba:c5:d1:af:73:3b:4d:3a:
         b6:b6:9d:38:80:3e:d7:9c:91:4d:3c:9f:95:e0:d3:9d:4b:be:
         14:fc:fc:eb:7c:41:ea:73:27:57:bf:78:0c:33:00:a0:89:47:
         0a:0c:43:d2:97:21:40:24:56:46:0b:0b:56:d0:9a:78:3a:3a:
         5f:e0:05:52:91:60:be:8d:88:15:1b:8e:a7:77:9c:74:97:f9:
         d5:8e:0a:b6:b8:49:7d:83:13:1a:79:23:13:04:af:db:e0:05:
         df:a4:66:3f:d6:16:1b:61:e3:5d:a9:1c:ff:88:74:4c:35:d8:
         6a:e5:7c:de:b4:d9:80:20:39:4f:1b:4e:7b:41:3d:ac:cd:c2:
         fb:cf:f0:4e:f0:6a:18:6a:c0:77:24:e7:03:92:df:0b:79:98:
         92:a1:62:7c:5b:f3:dc:07:9f:86:18:6b:fb:67:63:3b:e0:4b:
         66:e8:3e:df:7b:13:87:63:67:26:36:8d:ec:b2:a2:78:dc:db:
         36:36:26:8c:c7:46:dc:f9:66:88:f9:bf:0a:b4:72:72:a5:a0:
         26:64:48:83:50:ab:f0:02:96:ea:7e:54:0e:7a:68:39:70:53:
         2f:e6:96:2e:48:39:5f:e7:71:8a:4f:e1:d9:05:bb:22:05:3f:
         92:ce:a1:ed:99:2a:9b:09:37:b7:9d:4d:f2:ad:17:03:5f:e6:
         66:6d:57:12:8a:a9:f0:54:35:b7:00:f1:e3:ef:a3:b8:c4:c5:
         55:90:3a:9b:21:4a:02:f5:08:f0:3d:a7:6c:b1:d0:28:72:ca:
         8b:41:3f:9e:9d:67:5b:45:20:2d:d1:00:b8:4d:62:9f:6a:9e:
         8f:2d:e2:0b:05:1a:19:e8:28:0c:1f:2f:1f:83:50:1b:af:87:
         fb:db:5a:4c:c4:01:35:5e:53:1a:12:ff:ef:36:74:7c:5e:06:
         a3:f8:38:56:6e:d6:75:02:ee:22:4b:75:21:41:00:4e:20:a8:
         97:68:26:4f:a1:ca:99:24:06:10:09:18:16:f4:33:db:79:e4:
         4c:5d:55:3c:47:65:3e:2e:06:31:4f:d2:f8:72:90:be:8a:20:
         cd:df:5d:ed:cf:96:c9:b6:7f:e2:55:5e:74:30:3e:13:61:74:
         03:02:fb:23:f4:bb:1d:f5:96:9e:45:77:77:87:97:f3:2c:72:
         4c:2a:d8:1d:6f:05:5d:cd:44:fa:5a:d0:b7:ef:a0:3e:83:a9:
         bf:1b:5a:06:3f:7d:39:b7
-----BEGIN CERTIFICATE-----
MIIFgDCCA2igAwIBAgIBBDANBgkqhkiG9w0BAQsFADCBnjELMAkGA1UEBhMCQkEx
CzAJBgNVBAgTAlJTMRMwEQYDVQQHEwpCYW5qYSBMdWthMSEwHwYDVQQKExhFbGVr
dHJvdGVobmlja2kgZmFrdWx0ZXQxHDAaBgNVBAsUE0NBX05pa29sYUJsYWdvamV2
aWMxDTALBgNVBAMTBFJPT1QxHTAbBgkqhkiG9w0BCQEWDlJPT1RAZXRmYmwubmV0
MB4XDTE5MDgwOTEzMzQwNloXDTE5MTEwNzEzMzQwNlowgZMxCzAJBgNVBAYTAkJB
MQswCQYDVQQIEwJSUzEhMB8GA1UEChMYRWxla3Ryb3RlaG5pY2tpIGZha3VsdGV0
MRwwGgYDVQQLFBNDQV9OaWtvbGFCbGFnb2pldmljMRIwEAYDVQQDEwlLb3Jpc25p
azQxIjAgBgkqhkiG9w0BCQEWE2tvcmlzbmlrNEBnbWFpbC5jb20wggEiMA0GCSqG
SIb3DQEBAQUAA4IBDwAwggEKAoIBAQC6psEEm0ZQeXgH0GnPF5Y6BdeOGkYcscDx
1vZna3Iq0YdnQhQnTstxAx14IfixARSetyC/kAvzRwqSpXKioRW+FUxz7b8jeO7K
KozJmTQa1cDPvs3zEWofNilBQ7Sge4kwabHT9TfKRv7eJNtJ+Lt/jWOFgIGpyNYv
iT6DdBuTFaZ8j5jP2RKU5dNguJJSu9tnkdL9/gx56jFRUzFWgzm2eHTJnVMapjTj
+Mqfp1lESDfIxONvcUTzlJRbpa7609RRuEQVpJzB99OZDg6dG4kPWDfeSl43z4++
t19FrzXH72QH87hKMXqW0ALxyNQnF9hZ2j2uiG21L4CGHbjhEV//AgMBAAGjgdEw
gc4wCQYDVR0TBAIwADALBgNVHQ8EBAMCBNAwEwYDVR0lBAwwCgYIKwYBBQUHAwIw
LAYJYIZIAYb4QgENBB8WHU9wZW5TU0wgR2VuZXJhdGVkIENlcnRpZmljYXRlMB0G
A1UdDgQWBBTZ3tHzGbrcxQamvh8VTS12ZQFISTAfBgNVHSMEGDAWgBRqkCwKEj3G
ruXMjRxQEZGTXS4NPjAxBgNVHR8EKjAoMCagJKAihiBodHRwOi8vMTkyLjE2OC4y
MS44OS9yb290Y3JsLnBlbTANBgkqhkiG9w0BAQsFAAOCAgEAS6is5nZ1avDpX+Sp
CbDpG2sY/0gXCZ4UxADEoLe6P2uA6mt56OigdIqqzf9Mw7rF0a9zO006tradOIA+
15yRTTyfleDTnUu+FPz863xB6nMnV794DDMAoIlHCgxD0pchQCRWRgsLVtCaeDo6
X+AFUpFgvo2IFRuOp3ecdJf51Y4KtrhJfYMTGnkjEwSv2+AF36RmP9YWG2HjXakc
/4h0TDXYauV83rTZgCA5TxtOe0E9rM3C+8/wTvBqGGrAdyTnA5LfC3mYkqFifFvz
3Aefhhhr+2djO+BLZug+33sTh2NnJjaN7LKieNzbNjYmjMdG3PlmiPm/CrRycqWg
JmRIg1Cr8AKW6n5UDnpoOXBTL+aWLkg5X+dxik/h2QW7IgU/ks6h7Zkqmwk3t51N
8q0XA1/mZm1XEoqp8FQ1twDx4++juMTFVZA6myFKAvUI8D2nbLHQKHLKi0E/np1n
W0UgLdEAuE1in2qejy3iCwUaGegoDB8vH4NQG6+H+9taTMQBNV5TGhL/7zZ0fF4G
o/g4Vm7WdQLuIkt1IUEATiCol2gmT6HKmSQGEAkYFvQz23nkTF1VPEdlPi4GMU/S
+HKQvoogzd9d7c+WybZ/4lVedDA+E2F0AwL7I/S7HfWWnkV3d4eX8yxyTCrYHW8F
Xc1E+lrQt++gPoOpvxtaBj99Obc=
-----END CERTIFICATE-----
