Certificate:
    Data:
        Version: 3 (0x2)
        Serial Number: 4 (0x4)
    Signature Algorithm: sha256WithRSAEncryption
        Issuer: C=BA, ST=RS, L=Banja Luka, O=Elektrotehnicki fakultet, OU=CA_NikolaBlagojevic, CN=ROOT/emailAddress=ROOT@etfbl.net
        Validity
            Not Before: Mar 20 07:18:14 2019 GMT
            Not After : Jun 18 07:18:14 2019 GMT
        Subject: C=BA, ST=RS, O=Elektrotehnicki fakultet, OU=CA_NikolaBlagojevic, CN=korisnik4/emailAddress=korisnik4@etfbl.net
        Subject Public Key Info:
            Public Key Algorithm: rsaEncryption
                Public-Key: (2048 bit)
                Modulus:
                    00:ba:a6:c1:04:9b:46:50:79:78:07:d0:69:cf:17:
                    96:3a:05:d7:8e:1a:46:1c:b1:c0:f1:d6:f6:67:6b:
                    72:2a:d1:87:67:42:14:27:4e:cb:71:03:1d:78:21:
                    f8:b1:01:14:9e:b7:20:bf:90:0b:f3:47:0a:92:a5:
                    72:a2:a1:15:be:15:4c:73:ed:bf:23:78:ee:ca:2a:
                    8c:c9:99:34:1a:d5:c0:cf:be:cd:f3:11:6a:1f:36:
                    29:41:43:b4:a0:7b:89:30:69:b1:d3:f5:37:ca:46:
                    fe:de:24:db:49:f8:bb:7f:8d:63:85:80:81:a9:c8:
                    d6:2f:89:3e:83:74:1b:93:15:a6:7c:8f:98:cf:d9:
                    12:94:e5:d3:60:b8:92:52:bb:db:67:91:d2:fd:fe:
                    0c:79:ea:31:51:53:31:56:83:39:b6:78:74:c9:9d:
                    53:1a:a6:34:e3:f8:ca:9f:a7:59:44:48:37:c8:c4:
                    e3:6f:71:44:f3:94:94:5b:a5:ae:fa:d3:d4:51:b8:
                    44:15:a4:9c:c1:f7:d3:99:0e:0e:9d:1b:89:0f:58:
                    37:de:4a:5e:37:cf:8f:be:b7:5f:45:af:35:c7:ef:
                    64:07:f3:b8:4a:31:7a:96:d0:02:f1:c8:d4:27:17:
                    d8:59:da:3d:ae:88:6d:b5:2f:80:86:1d:b8:e1:11:
                    5f:ff
                Exponent: 65537 (0x10001)
        X509v3 extensions:
            X509v3 Basic Constraints: 
                CA:FALSE
            X509v3 Key Usage: 
                Digital Signature, Non Repudiation, Data Encipherment
            X509v3 Extended Key Usage: 
                TLS Web Client Authentication
            Netscape Comment: 
                OpenSSL Generated Certificate
            X509v3 Subject Key Identifier: 
                D9:DE:D1:F3:19:BA:DC:C5:06:A6:BE:1F:15:4D:2D:76:65:01:48:49
            X509v3 Authority Key Identifier: 
                keyid:6A:90:2C:0A:12:3D:C6:AE:E5:CC:8D:1C:50:11:91:93:5D:2E:0D:3E

            X509v3 CRL Distribution Points: 

                Full Name:
                  URI:http://192.168.21.89/rootcrl.pem

    Signature Algorithm: sha256WithRSAEncryption
         cb:9c:0f:4f:c6:ce:05:fb:46:b3:c9:8f:92:7a:3f:34:5a:f3:
         34:9f:fc:a4:10:4a:57:2e:7e:69:a9:e9:07:35:8c:40:1e:87:
         c3:c5:55:c4:67:9b:c5:ed:eb:d1:fa:fa:94:a1:c7:13:2e:b1:
         bc:e5:3d:57:ab:4e:b4:cd:a9:6a:fd:19:f4:f6:c8:4b:61:9d:
         57:40:da:7d:65:83:f7:c8:59:ea:3c:7e:43:da:b5:57:c3:0a:
         85:e8:e5:ca:af:a5:53:27:f0:e7:b6:84:2f:c6:07:46:b6:87:
         c8:8e:b1:3d:aa:ed:46:bf:df:f4:e0:7f:04:30:c5:8a:99:41:
         e1:0c:52:be:01:61:61:02:c4:01:00:82:0d:5d:0a:03:ef:2f:
         74:a5:6f:10:b7:e2:b5:22:39:1b:4a:a8:72:36:db:4c:6c:03:
         4a:dc:31:dd:28:49:8c:33:07:d9:42:5e:e4:e2:60:c0:0f:7a:
         80:2e:37:07:a4:94:09:ac:64:e3:a3:78:31:0c:2f:36:b8:76:
         5e:64:53:ac:1a:74:3a:9a:57:25:13:84:8e:b9:d4:1c:4b:2f:
         a3:9f:c7:a4:46:82:fe:fd:9c:c7:9c:42:f4:e2:b6:b1:c0:6b:
         03:35:fe:2f:2a:9a:57:39:60:95:27:e3:56:f9:44:03:c9:81:
         cd:4b:b0:0b:8d:50:e9:d3:66:ff:d8:e4:ac:72:d0:3d:f4:16:
         1e:77:5a:a0:65:9f:97:7a:3a:d9:94:dd:4d:fe:4f:1c:9e:2a:
         71:0d:1c:76:33:19:1a:2e:55:75:8f:5b:a0:26:8c:b3:d5:f2:
         24:44:a4:79:6c:b8:9f:dd:fb:7d:12:c9:78:f9:6e:87:5a:b7:
         d9:58:6b:d4:41:fe:d5:62:69:32:f6:d4:3f:8a:0c:36:65:bf:
         34:60:3d:24:93:77:22:4c:f6:e4:1c:70:9a:90:e3:3c:86:3e:
         fe:5a:aa:c0:84:3a:6d:94:b5:8b:47:90:d4:97:88:6d:49:1c:
         b6:de:9c:f5:a4:44:f9:9b:03:5d:18:2b:b3:89:43:c0:8b:76:
         48:f9:bb:09:73:17:8d:81:2a:9f:c4:3b:78:9c:c3:48:ce:c9:
         67:2a:8a:b5:a5:cc:0d:32:d2:2f:6b:e2:1d:d0:e8:4d:c9:ec:
         44:17:50:42:f3:0e:cb:20:69:f3:e9:f1:c7:be:77:bd:b4:ca:
         b5:f1:06:76:9a:19:75:b6:4c:04:3c:c4:18:27:bf:eb:99:d3:
         98:f4:8f:6a:7b:1e:d4:39:d1:21:f8:0f:42:d9:51:3e:5c:b3:
         e6:f1:47:6f:a6:57:f4:ae:0d:c8:62:95:af:e3:e2:00:c9:a2:
         c2:96:78:fc:1b:d9:8c:27
-----BEGIN CERTIFICATE-----
MIIFgDCCA2igAwIBAgIBBDANBgkqhkiG9w0BAQsFADCBnjELMAkGA1UEBhMCQkEx
CzAJBgNVBAgTAlJTMRMwEQYDVQQHEwpCYW5qYSBMdWthMSEwHwYDVQQKExhFbGVr
dHJvdGVobmlja2kgZmFrdWx0ZXQxHDAaBgNVBAsUE0NBX05pa29sYUJsYWdvamV2
aWMxDTALBgNVBAMTBFJPT1QxHTAbBgkqhkiG9w0BCQEWDlJPT1RAZXRmYmwubmV0
MB4XDTE5MDMyMDA3MTgxNFoXDTE5MDYxODA3MTgxNFowgZMxCzAJBgNVBAYTAkJB
MQswCQYDVQQIEwJSUzEhMB8GA1UEChMYRWxla3Ryb3RlaG5pY2tpIGZha3VsdGV0
MRwwGgYDVQQLFBNDQV9OaWtvbGFCbGFnb2pldmljMRIwEAYDVQQDEwlrb3Jpc25p
azQxIjAgBgkqhkiG9w0BCQEWE2tvcmlzbmlrNEBldGZibC5uZXQwggEiMA0GCSqG
SIb3DQEBAQUAA4IBDwAwggEKAoIBAQC6psEEm0ZQeXgH0GnPF5Y6BdeOGkYcscDx
1vZna3Iq0YdnQhQnTstxAx14IfixARSetyC/kAvzRwqSpXKioRW+FUxz7b8jeO7K
KozJmTQa1cDPvs3zEWofNilBQ7Sge4kwabHT9TfKRv7eJNtJ+Lt/jWOFgIGpyNYv
iT6DdBuTFaZ8j5jP2RKU5dNguJJSu9tnkdL9/gx56jFRUzFWgzm2eHTJnVMapjTj
+Mqfp1lESDfIxONvcUTzlJRbpa7609RRuEQVpJzB99OZDg6dG4kPWDfeSl43z4++
t19FrzXH72QH87hKMXqW0ALxyNQnF9hZ2j2uiG21L4CGHbjhEV//AgMBAAGjgdEw
gc4wCQYDVR0TBAIwADALBgNVHQ8EBAMCBNAwEwYDVR0lBAwwCgYIKwYBBQUHAwIw
LAYJYIZIAYb4QgENBB8WHU9wZW5TU0wgR2VuZXJhdGVkIENlcnRpZmljYXRlMB0G
A1UdDgQWBBTZ3tHzGbrcxQamvh8VTS12ZQFISTAfBgNVHSMEGDAWgBRqkCwKEj3G
ruXMjRxQEZGTXS4NPjAxBgNVHR8EKjAoMCagJKAihiBodHRwOi8vMTkyLjE2OC4y
MS44OS9yb290Y3JsLnBlbTANBgkqhkiG9w0BAQsFAAOCAgEAy5wPT8bOBftGs8mP
kno/NFrzNJ/8pBBKVy5+aanpBzWMQB6Hw8VVxGebxe3r0fr6lKHHEy6xvOU9V6tO
tM2pav0Z9PbIS2GdV0DafWWD98hZ6jx+Q9q1V8MKhejlyq+lUyfw57aEL8YHRraH
yI6xPartRr/f9OB/BDDFiplB4QxSvgFhYQLEAQCCDV0KA+8vdKVvELfitSI5G0qo
cjbbTGwDStwx3ShJjDMH2UJe5OJgwA96gC43B6SUCaxk46N4MQwvNrh2XmRTrBp0
OppXJROEjrnUHEsvo5/HpEaC/v2cx5xC9OK2scBrAzX+LyqaVzlglSfjVvlEA8mB
zUuwC41Q6dNm/9jkrHLQPfQWHndaoGWfl3o62ZTdTf5PHJ4qcQ0cdjMZGi5VdY9b
oCaMs9XyJESkeWy4n937fRLJePluh1q32Vhr1EH+1WJpMvbUP4oMNmW/NGA9JJN3
Ikz25BxwmpDjPIY+/lqqwIQ6bZS1i0eQ1JeIbUkctt6c9aRE+ZsDXRgrs4lDwIt2
SPm7CXMXjYEqn8Q7eJzDSM7JZyqKtaXMDTLSL2viHdDoTcnsRBdQQvMOyyBp8+nx
x753vbTKtfEGdpoZdbZMBDzEGCe/65nTmPSPanse1DnRIfgPQtlRPlyz5vFHb6ZX
9K4NyGKVr+PiAMmiwpZ4/BvZjCc=
-----END CERTIFICATE-----
