Certificate:
    Data:
        Version: 3 (0x2)
        Serial Number: 5 (0x5)
    Signature Algorithm: sha256WithRSAEncryption
        Issuer: C=BA, ST=RS, L=Banja Luka, O=Elektrotehnicki fakultet, OU=CA_NikolaBlagojevic, CN=ROOT/emailAddress=ROOT@etfbl.net
        Validity
            Not Before: Aug  9 13:36:58 2019 GMT
            Not After : Aug 12 13:36:58 2019 GMT
        Subject: C=BA, ST=RS, O=Elektrotehnicki fakultet, OU=CA_NikolaBlagojevic, CN=Korisnik5/emailAddress=korisnik5@gmail.com
        Subject Public Key Info:
            Public Key Algorithm: rsaEncryption
                Public-Key: (2048 bit)
                Modulus:
                    00:b4:a8:bb:6e:74:a1:3d:d2:e0:25:69:72:d1:e1:
                    a2:3d:03:40:4e:c3:20:26:f7:50:49:62:e4:1f:3e:
                    87:54:2a:4d:bc:84:91:e3:ae:67:41:dc:27:dd:59:
                    0a:b7:cc:3b:69:24:d9:c7:d2:c8:6d:cf:80:2b:61:
                    68:13:c8:cd:32:41:8e:b3:36:1a:f7:89:36:03:0c:
                    37:af:20:9f:d0:0d:09:f8:db:fe:de:56:34:70:74:
                    92:55:b2:2a:12:3f:48:2f:f7:21:ed:33:a9:3b:ef:
                    e0:9c:84:8e:ee:17:39:e5:60:55:f8:4d:3c:41:37:
                    c1:1e:ad:69:24:b1:55:7b:eb:86:d9:9a:ce:a4:6d:
                    3c:57:36:64:8a:a5:0b:3b:e7:b8:43:54:df:b5:ed:
                    ff:59:2f:e2:63:94:39:c9:4e:4e:67:a0:70:16:1f:
                    c5:e1:bb:a8:4a:44:30:de:a6:be:49:16:aa:3f:59:
                    ab:04:14:06:2b:ca:15:de:f6:f5:c2:bd:b8:25:ad:
                    52:55:26:87:93:f8:af:38:ce:c5:f9:fb:3b:fa:d1:
                    38:91:12:d6:ef:f7:20:ea:e4:44:10:d7:76:a0:1e:
                    84:f3:6e:22:fb:06:df:34:b0:69:77:fa:a8:9b:89:
                    84:0f:67:36:bf:0c:6d:7b:9b:58:87:48:b4:e0:13:
                    20:6b
                Exponent: 65537 (0x10001)
        X509v3 extensions:
            X509v3 Basic Constraints: 
                CA:FALSE
            X509v3 Key Usage: 
                Digital Signature, Non Repudiation, Data Encipherment
            X509v3 Extended Key Usage: 
                TLS Web Client Authentication
            Netscape Comment: 
                OpenSSL Generated Certificate
            X509v3 Subject Key Identifier: 
                43:42:E1:C7:D7:32:8F:39:55:AC:2E:E6:AB:7E:EF:10:F3:C1:48:D2
            X509v3 Authority Key Identifier: 
                keyid:6A:90:2C:0A:12:3D:C6:AE:E5:CC:8D:1C:50:11:91:93:5D:2E:0D:3E

            X509v3 CRL Distribution Points: 

                Full Name:
                  URI:http://192.168.21.89/rootcrl.pem

    Signature Algorithm: sha256WithRSAEncryption
         ef:22:ef:82:1f:f1:50:f7:79:9d:b0:67:a8:e9:55:76:ac:5f:
         d5:c4:53:da:97:37:75:f6:13:58:17:cd:b0:6a:d4:5f:b2:4d:
         09:77:b0:c5:c6:03:cd:2d:b2:7b:15:e6:f8:7b:2b:7e:54:5b:
         29:d3:dc:63:0a:98:07:c5:e2:f5:39:d7:0c:55:9e:b3:00:10:
         41:ad:ee:68:c1:e4:1d:c3:fb:93:68:19:ea:8d:c7:6b:56:d0:
         af:98:0a:2d:fd:e7:c9:01:c2:e6:18:b1:00:71:67:bc:51:d6:
         81:3c:42:18:d4:3a:e6:9b:43:61:57:09:03:25:44:d1:94:a2:
         7e:fe:c2:2f:f2:9b:d8:e5:f0:74:c8:88:6c:9b:fa:50:2a:76:
         d6:1f:5c:d5:6e:3d:f1:6e:38:00:7f:56:b4:c2:01:ab:1f:5a:
         06:f7:08:13:5a:a4:05:4c:8b:c8:28:44:6b:2c:07:c5:a7:9d:
         52:8e:be:76:17:c7:a1:49:07:85:13:10:6c:0c:16:ca:65:b2:
         af:5e:31:e6:9a:e7:10:8b:13:4f:a0:05:4a:d7:91:83:f0:87:
         07:be:2f:4b:62:06:47:09:27:45:70:e0:ba:b0:f2:a9:f3:22:
         09:da:f7:dc:0c:7b:f6:24:3c:9f:61:c0:88:a5:f1:90:c9:5d:
         00:80:e2:ec:9a:3d:63:64:ff:cf:68:2e:d8:bc:42:e5:8f:95:
         7e:23:70:ba:71:9f:20:38:74:02:d2:f0:0b:2a:b3:d8:46:a8:
         46:66:c1:8a:e5:73:1d:61:45:e1:41:8c:54:c6:f9:c9:13:56:
         10:92:50:d8:b3:a6:e9:c4:a6:e2:ad:74:bb:6c:5a:6c:bf:b7:
         49:93:25:4f:af:9e:dd:68:9f:3a:ff:c8:32:7b:a1:03:74:0c:
         cb:0c:ff:c2:01:2a:5c:c9:e2:7a:a7:4c:95:ec:a7:61:3f:f5:
         a5:e9:e4:39:d0:d5:f8:c1:42:6a:66:96:23:3f:5a:0c:48:0e:
         6b:49:1e:de:ff:e3:0f:49:3a:58:56:10:fa:0f:d7:13:bf:b4:
         b8:94:97:0a:24:16:8b:c9:ae:3f:a9:97:95:57:86:e2:03:d4:
         04:ca:3a:ef:d9:ac:44:90:43:be:e9:7d:71:70:8a:ba:58:8f:
         4d:36:0b:5b:43:3e:c6:54:f7:4e:d8:fd:f3:51:e0:05:eb:4c:
         4c:8c:00:3e:c2:9a:ad:a0:30:95:1b:91:e5:c2:85:e9:90:a5:
         90:5d:64:f1:20:b0:12:4b:8a:01:0b:79:ce:e7:36:63:49:48:
         27:eb:86:77:5d:59:74:a4:68:2b:bb:08:e7:4d:3c:d6:69:f7:
         da:79:ea:ca:3a:33:34:8e
-----BEGIN CERTIFICATE-----
MIIFgDCCA2igAwIBAgIBBTANBgkqhkiG9w0BAQsFADCBnjELMAkGA1UEBhMCQkEx
CzAJBgNVBAgTAlJTMRMwEQYDVQQHEwpCYW5qYSBMdWthMSEwHwYDVQQKExhFbGVr
dHJvdGVobmlja2kgZmFrdWx0ZXQxHDAaBgNVBAsUE0NBX05pa29sYUJsYWdvamV2
aWMxDTALBgNVBAMTBFJPT1QxHTAbBgkqhkiG9w0BCQEWDlJPT1RAZXRmYmwubmV0
MB4XDTE5MDgwOTEzMzY1OFoXDTE5MDgxMjEzMzY1OFowgZMxCzAJBgNVBAYTAkJB
MQswCQYDVQQIEwJSUzEhMB8GA1UEChMYRWxla3Ryb3RlaG5pY2tpIGZha3VsdGV0
MRwwGgYDVQQLFBNDQV9OaWtvbGFCbGFnb2pldmljMRIwEAYDVQQDEwlLb3Jpc25p
azUxIjAgBgkqhkiG9w0BCQEWE2tvcmlzbmlrNUBnbWFpbC5jb20wggEiMA0GCSqG
SIb3DQEBAQUAA4IBDwAwggEKAoIBAQC0qLtudKE90uAlaXLR4aI9A0BOwyAm91BJ
YuQfPodUKk28hJHjrmdB3CfdWQq3zDtpJNnH0shtz4ArYWgTyM0yQY6zNhr3iTYD
DDevIJ/QDQn42/7eVjRwdJJVsioSP0gv9yHtM6k77+CchI7uFznlYFX4TTxBN8Ee
rWkksVV764bZms6kbTxXNmSKpQs757hDVN+17f9ZL+JjlDnJTk5noHAWH8Xhu6hK
RDDepr5JFqo/WasEFAYryhXe9vXCvbglrVJVJoeT+K84zsX5+zv60TiREtbv9yDq
5EQQ13agHoTzbiL7Bt80sGl3+qibiYQPZza/DG17m1iHSLTgEyBrAgMBAAGjgdEw
gc4wCQYDVR0TBAIwADALBgNVHQ8EBAMCBNAwEwYDVR0lBAwwCgYIKwYBBQUHAwIw
LAYJYIZIAYb4QgENBB8WHU9wZW5TU0wgR2VuZXJhdGVkIENlcnRpZmljYXRlMB0G
A1UdDgQWBBRDQuHH1zKPOVWsLuarfu8Q88FI0jAfBgNVHSMEGDAWgBRqkCwKEj3G
ruXMjRxQEZGTXS4NPjAxBgNVHR8EKjAoMCagJKAihiBodHRwOi8vMTkyLjE2OC4y
MS44OS9yb290Y3JsLnBlbTANBgkqhkiG9w0BAQsFAAOCAgEA7yLvgh/xUPd5nbBn
qOlVdqxf1cRT2pc3dfYTWBfNsGrUX7JNCXewxcYDzS2yexXm+HsrflRbKdPcYwqY
B8Xi9TnXDFWeswAQQa3uaMHkHcP7k2gZ6o3Ha1bQr5gKLf3nyQHC5hixAHFnvFHW
gTxCGNQ65ptDYVcJAyVE0ZSifv7CL/Kb2OXwdMiIbJv6UCp21h9c1W498W44AH9W
tMIBqx9aBvcIE1qkBUyLyChEaywHxaedUo6+dhfHoUkHhRMQbAwWymWyr14x5prn
EIsTT6AFSteRg/CHB74vS2IGRwknRXDgurDyqfMiCdr33Ax79iQ8n2HAiKXxkMld
AIDi7Jo9Y2T/z2gu2LxC5Y+VfiNwunGfIDh0AtLwCyqz2EaoRmbBiuVzHWFF4UGM
VMb5yRNWEJJQ2LOm6cSm4q10u2xabL+3SZMlT6+e3WifOv/IMnuhA3QMywz/wgEq
XMnieqdMleynYT/1penkOdDV+MFCamaWIz9aDEgOa0ke3v/jD0k6WFYQ+g/XE7+0
uJSXCiQWi8muP6mXlVeG4gPUBMo679msRJBDvul9cXCKuliPTTYLW0M+xlT3Ttj9
81HgBetMTIwAPsKaraAwlRuR5cKF6ZClkF1k8SCwEkuKAQt5zuc2Y0lIJ+uGd11Z
dKRoK7sI50081mn32nnqyjozNI4=
-----END CERTIFICATE-----
