Certificate:
    Data:
        Version: 3 (0x2)
        Serial Number: 1 (0x1)
    Signature Algorithm: sha256WithRSAEncryption
        Issuer: C=BA, ST=RS, L=Banja Luka, O=Elektrotehnicki fakultet, OU=CA_NikolaBlagojevic, CN=ROOT/emailAddress=ROOT@etfbl.net
        Validity
            Not Before: Aug  9 13:31:53 2019 GMT
            Not After : Nov  7 13:31:53 2019 GMT
        Subject: C=BA, ST=RS, O=Elektrotehnicki fakultet, OU=CA_NikolaBlagojevic, CN=Korisnik1/emailAddress=korisnik1@gmail.com
        Subject Public Key Info:
            Public Key Algorithm: rsaEncryption
                Public-Key: (2048 bit)
                Modulus:
                    00:e3:7d:7d:6e:19:74:79:ee:50:fd:7d:6c:c8:4a:
                    bf:f1:f1:e7:70:78:83:ae:cf:38:82:56:dd:69:48:
                    c5:61:d9:93:38:59:9e:57:9c:f6:2f:24:e7:14:e8:
                    76:e6:cc:0a:a1:c8:05:cc:f3:10:bb:e6:b7:7d:ff:
                    53:f8:d6:cd:38:bd:94:49:bf:81:3d:b8:db:f8:64:
                    df:25:c2:2f:b7:63:d6:ee:70:8a:b4:3d:9f:e3:8b:
                    43:b3:dd:de:98:37:4b:f7:1c:c8:55:12:20:43:e0:
                    94:ec:5d:93:8f:41:8d:40:cc:d1:48:9a:46:f3:f2:
                    56:3a:7c:01:0f:f7:5a:8d:cc:f9:81:d6:55:ba:44:
                    91:84:6d:a0:7a:fc:d5:6d:b8:4b:40:28:3c:c6:82:
                    b8:be:80:67:79:44:cb:f4:eb:99:b3:3b:aa:95:1e:
                    5a:12:94:80:57:54:a4:0b:ef:8a:62:8b:46:23:f7:
                    1b:e4:ed:13:a3:cd:dd:36:15:4f:c2:4b:dd:7b:56:
                    67:60:f5:88:4a:a8:ec:85:36:67:59:75:f7:27:dc:
                    93:ac:d7:c6:fb:ba:9c:5b:b0:d7:f8:ad:48:0e:47:
                    47:72:48:9b:ae:68:8f:c4:33:63:43:73:25:d1:fa:
                    7b:2e:42:07:68:87:80:e4:5a:6b:b2:80:8e:75:37:
                    70:eb
                Exponent: 65537 (0x10001)
        X509v3 extensions:
            X509v3 Basic Constraints: 
                CA:FALSE
            X509v3 Key Usage: 
                Digital Signature, Non Repudiation, Data Encipherment
            X509v3 Extended Key Usage: 
                TLS Web Client Authentication
            Netscape Comment: 
                OpenSSL Generated Certificate
            X509v3 Subject Key Identifier: 
                86:7E:20:C3:41:44:F0:B6:41:F4:B2:62:85:C5:80:C0:21:65:96:EA
            X509v3 Authority Key Identifier: 
                keyid:6A:90:2C:0A:12:3D:C6:AE:E5:CC:8D:1C:50:11:91:93:5D:2E:0D:3E

            X509v3 CRL Distribution Points: 

                Full Name:
                  URI:http://192.168.21.89/rootcrl.pem

    Signature Algorithm: sha256WithRSAEncryption
         2d:c8:69:f2:73:97:42:f2:8f:b8:48:bf:a8:7c:13:43:84:4a:
         47:ce:24:14:a8:25:fe:a0:9a:27:2d:77:48:40:fc:40:ab:f3:
         d4:e4:dd:3b:1d:1e:f6:10:43:58:ec:7f:68:52:62:20:e8:aa:
         d1:2d:36:f6:eb:20:a5:8a:60:cb:89:17:94:ab:b9:f7:29:2f:
         71:67:44:f3:45:d0:8a:c6:0f:57:87:1d:50:94:c1:1d:fa:f6:
         ff:e3:b5:c0:c5:f8:65:81:bc:95:ee:cd:74:b2:2e:5e:8e:57:
         40:be:91:9f:16:df:6b:b7:b0:ea:83:04:28:78:ca:a1:b4:e2:
         0e:d4:11:b0:d1:24:d6:f1:0e:3f:07:9b:df:d5:2b:d1:72:77:
         8d:84:88:96:d4:3e:43:5d:4b:9b:87:f8:98:b8:86:89:c4:63:
         4f:ca:5c:59:21:3a:cb:95:f9:1e:73:8a:92:99:9e:ec:b4:bf:
         17:d6:9c:c8:4d:b7:07:f5:8d:72:c3:15:d6:20:b1:ae:40:13:
         50:2e:9c:d4:b1:fa:00:55:b7:29:68:a8:42:87:20:ae:4b:c0:
         e7:2b:57:56:e6:61:79:29:e8:30:51:44:fe:7b:99:5f:70:72:
         79:af:b1:9c:2c:04:e7:60:0b:f1:bf:ec:fe:38:15:3e:f4:bf:
         7a:0f:72:cc:8e:72:94:c7:80:51:24:ca:9f:92:9f:57:0e:e9:
         73:57:b3:b1:ba:ae:bf:99:49:ce:d2:54:0c:17:c2:e5:06:a2:
         7a:d2:a7:25:c0:4b:f1:dd:2a:11:7f:d0:2f:4c:2d:57:f8:07:
         85:b6:86:82:e1:cc:57:fe:0d:a5:0f:b1:64:d1:fe:a2:c6:ad:
         33:0b:b2:b5:ca:d1:c4:92:c3:73:a1:8a:32:0a:a3:e4:d5:3c:
         2d:dd:42:82:ca:0c:33:26:db:0f:1e:12:b7:94:3e:23:3b:37:
         40:7a:2e:f4:5d:91:7f:5f:6d:4f:e4:fd:fd:95:c4:0d:bb:88:
         c3:94:ff:d5:0f:ea:06:fe:3e:37:50:63:66:b9:4d:a9:78:58:
         89:12:16:8b:e9:7c:37:c3:5d:55:65:62:42:53:06:34:92:2b:
         a8:27:33:2c:ce:e9:6a:83:7d:be:f0:e5:52:61:4d:93:b8:de:
         4c:35:cb:42:4c:d8:54:43:87:1e:19:79:18:af:8f:ca:c2:21:
         70:6e:1f:7a:32:2b:c5:22:a2:42:dc:57:c9:a9:90:fa:18:a6:
         c4:86:8b:a5:93:96:e8:4b:53:91:9d:79:01:4a:a7:e9:66:4a:
         e4:1c:74:d8:2e:1a:e6:b7:1e:04:44:1a:a9:50:e1:85:c6:de:
         da:b4:7e:cc:93:a3:b5:65
-----BEGIN CERTIFICATE-----
MIIFgDCCA2igAwIBAgIBATANBgkqhkiG9w0BAQsFADCBnjELMAkGA1UEBhMCQkEx
CzAJBgNVBAgTAlJTMRMwEQYDVQQHEwpCYW5qYSBMdWthMSEwHwYDVQQKExhFbGVr
dHJvdGVobmlja2kgZmFrdWx0ZXQxHDAaBgNVBAsUE0NBX05pa29sYUJsYWdvamV2
aWMxDTALBgNVBAMTBFJPT1QxHTAbBgkqhkiG9w0BCQEWDlJPT1RAZXRmYmwubmV0
MB4XDTE5MDgwOTEzMzE1M1oXDTE5MTEwNzEzMzE1M1owgZMxCzAJBgNVBAYTAkJB
MQswCQYDVQQIEwJSUzEhMB8GA1UEChMYRWxla3Ryb3RlaG5pY2tpIGZha3VsdGV0
MRwwGgYDVQQLFBNDQV9OaWtvbGFCbGFnb2pldmljMRIwEAYDVQQDEwlLb3Jpc25p
azExIjAgBgkqhkiG9w0BCQEWE2tvcmlzbmlrMUBnbWFpbC5jb20wggEiMA0GCSqG
SIb3DQEBAQUAA4IBDwAwggEKAoIBAQDjfX1uGXR57lD9fWzISr/x8edweIOuzziC
Vt1pSMVh2ZM4WZ5XnPYvJOcU6HbmzAqhyAXM8xC75rd9/1P41s04vZRJv4E9uNv4
ZN8lwi+3Y9bucIq0PZ/ji0Oz3d6YN0v3HMhVEiBD4JTsXZOPQY1AzNFImkbz8lY6
fAEP91qNzPmB1lW6RJGEbaB6/NVtuEtAKDzGgri+gGd5RMv065mzO6qVHloSlIBX
VKQL74pii0Yj9xvk7ROjzd02FU/CS917Vmdg9YhKqOyFNmdZdfcn3JOs18b7upxb
sNf4rUgOR0dySJuuaI/EM2NDcyXR+nsuQgdoh4DkWmuygI51N3DrAgMBAAGjgdEw
gc4wCQYDVR0TBAIwADALBgNVHQ8EBAMCBNAwEwYDVR0lBAwwCgYIKwYBBQUHAwIw
LAYJYIZIAYb4QgENBB8WHU9wZW5TU0wgR2VuZXJhdGVkIENlcnRpZmljYXRlMB0G
A1UdDgQWBBSGfiDDQUTwtkH0smKFxYDAIWWW6jAfBgNVHSMEGDAWgBRqkCwKEj3G
ruXMjRxQEZGTXS4NPjAxBgNVHR8EKjAoMCagJKAihiBodHRwOi8vMTkyLjE2OC4y
MS44OS9yb290Y3JsLnBlbTANBgkqhkiG9w0BAQsFAAOCAgEALchp8nOXQvKPuEi/
qHwTQ4RKR84kFKgl/qCaJy13SED8QKvz1OTdOx0e9hBDWOx/aFJiIOiq0S029usg
pYpgy4kXlKu59ykvcWdE80XQisYPV4cdUJTBHfr2/+O1wMX4ZYG8le7NdLIuXo5X
QL6Rnxbfa7ew6oMEKHjKobTiDtQRsNEk1vEOPweb39Ur0XJ3jYSIltQ+Q11Lm4f4
mLiGicRjT8pcWSE6y5X5HnOKkpme7LS/F9acyE23B/WNcsMV1iCxrkATUC6c1LH6
AFW3KWioQocgrkvA5ytXVuZheSnoMFFE/nuZX3Byea+xnCwE52AL8b/s/jgVPvS/
eg9yzI5ylMeAUSTKn5KfVw7pc1ezsbquv5lJztJUDBfC5QaietKnJcBL8d0qEX/Q
L0wtV/gHhbaGguHMV/4NpQ+xZNH+osatMwuytcrRxJLDc6GKMgqj5NU8Ld1CgsoM
MybbDx4St5Q+Izs3QHou9F2Rf19tT+T9/ZXEDbuIw5T/1Q/qBv4+N1BjZrlNqXhY
iRIWi+l8N8NdVWViQlMGNJIrqCczLM7paoN9vvDlUmFNk7jeTDXLQkzYVEOHHhl5
GK+PysIhcG4fejIrxSKiQtxXyamQ+himxIaLpZOW6EtTkZ15AUqn6WZK5Bx02C4a
5rceBEQaqVDhhcbe2rR+zJOjtWU=
-----END CERTIFICATE-----
