Certificate:
    Data:
        Version: 3 (0x2)
        Serial Number: 2 (0x2)
    Signature Algorithm: sha256WithRSAEncryption
        Issuer: C=BA, ST=RS, L=Banja Luka, O=Elektrotehnicki fakultet, OU=CA_NikolaBlagojevic, CN=ROOT/emailAddress=ROOT@etfbl.net
        Validity
            Not Before: Mar 20 07:17:13 2019 GMT
            Not After : Jun 18 07:17:13 2019 GMT
        Subject: C=BA, ST=RS, O=Elektrotehnicki fakultet, OU=CA_NikolaBlagojevic, CN=korisnik2/emailAddress=korisnik2@etfbl.net
        Subject Public Key Info:
            Public Key Algorithm: rsaEncryption
                Public-Key: (2048 bit)
                Modulus:
                    00:a9:fa:1b:c0:8c:18:dc:28:34:70:e5:8a:ff:2f:
                    51:e8:97:73:72:76:26:e6:3b:27:05:18:c4:f1:bd:
                    42:1a:92:31:d0:b6:7a:b0:60:4b:c3:7c:c4:1b:a6:
                    7e:1a:01:68:d6:c5:cc:fa:1b:13:af:69:b4:e6:5c:
                    de:9d:85:b1:80:c6:12:50:1e:2f:52:e6:a8:af:f9:
                    a2:3d:88:00:a1:80:03:42:aa:44:a6:42:0b:78:9d:
                    de:1c:19:91:5e:c5:5c:7a:df:ea:17:70:5b:ad:fa:
                    26:9b:39:e2:d5:6f:e5:4e:9d:16:1f:90:4f:61:84:
                    1b:cd:4d:d9:32:51:3a:f6:c4:e6:1f:1e:58:92:2a:
                    bc:d0:3d:54:23:09:ef:5f:b7:71:63:21:05:a6:a9:
                    40:1f:48:58:f7:bd:0a:2c:b7:74:6f:2b:56:a5:78:
                    02:e2:d3:9b:35:dc:0b:69:f2:f6:28:54:22:14:93:
                    6c:55:9e:b0:ff:2b:ca:1d:65:67:fb:03:7f:8d:31:
                    8b:4c:db:4b:3e:a1:16:65:18:88:85:61:2d:10:fa:
                    16:24:10:2f:d1:19:3e:b7:d1:8a:ba:4b:66:6e:f2:
                    7d:41:c0:2c:7b:6b:6a:72:e3:ef:bd:bb:6a:4e:d6:
                    d3:9e:37:72:50:b8:d8:76:35:56:14:5b:3c:97:7c:
                    08:7f
                Exponent: 65537 (0x10001)
        X509v3 extensions:
            X509v3 Basic Constraints: 
                CA:FALSE
            X509v3 Key Usage: 
                Digital Signature, Non Repudiation, Data Encipherment
            X509v3 Extended Key Usage: 
                TLS Web Client Authentication
            Netscape Comment: 
                OpenSSL Generated Certificate
            X509v3 Subject Key Identifier: 
                B1:F4:F6:18:FF:82:1C:1E:50:5F:69:34:E7:0E:97:80:19:40:72:75
            X509v3 Authority Key Identifier: 
                keyid:6A:90:2C:0A:12:3D:C6:AE:E5:CC:8D:1C:50:11:91:93:5D:2E:0D:3E

            X509v3 CRL Distribution Points: 

                Full Name:
                  URI:http://192.168.21.89/rootcrl.pem

    Signature Algorithm: sha256WithRSAEncryption
         d4:53:19:85:83:7b:8e:7e:d3:73:25:e6:a0:b8:be:19:bc:13:
         5b:f0:66:17:aa:fd:16:28:01:e8:2b:a9:b7:ff:2c:f2:f0:02:
         f7:bb:a2:6e:ce:06:21:ba:f7:7b:9a:0e:a5:c1:4d:be:bb:38:
         52:4f:86:ea:16:13:24:57:38:57:09:bc:b5:1d:ee:2f:61:24:
         a4:73:f2:49:59:de:21:88:4b:ea:f0:49:46:a2:fa:a7:90:08:
         cc:d1:34:c6:0d:df:ea:b3:49:0f:7d:fd:61:f3:ff:ab:41:b6:
         a6:8c:60:0f:de:a8:8e:88:c0:10:a0:e8:e4:07:5d:1c:f4:47:
         b1:7b:bc:95:e0:07:c7:ef:dc:bc:3e:fc:c9:5c:3b:3e:24:aa:
         75:b5:a0:76:2c:64:69:bb:0c:d9:a9:77:4d:ab:3b:72:ae:b9:
         bc:67:ae:ae:c3:48:1a:c3:12:9c:54:bf:f1:6a:bd:5d:59:79:
         d9:3d:ec:6a:a6:77:63:74:5a:88:56:36:20:d3:6b:88:26:bc:
         aa:1d:8f:09:bc:a6:7b:f4:73:6d:8a:e3:06:35:70:08:20:1e:
         ee:88:af:bd:d1:23:74:1c:f6:4b:03:e5:75:1e:17:00:8a:1d:
         05:8d:c0:7d:b8:9a:37:50:0f:75:2b:8f:9e:9d:21:12:c3:19:
         44:7c:88:00:72:df:e1:2e:df:cc:74:c3:82:f9:02:a8:94:fd:
         a3:5a:45:1c:9d:8c:33:54:3a:36:43:69:c1:4f:2c:7b:ea:c9:
         5a:ef:0e:7b:20:5e:cf:d3:6f:df:b4:e0:d6:39:45:23:24:3a:
         1a:38:a3:8e:3a:e2:83:c2:d0:52:41:ec:28:b2:c1:a5:45:0a:
         02:cb:ca:29:30:82:75:04:20:e8:f7:ed:f3:3d:72:eb:c3:51:
         62:f6:8b:c9:d2:9f:2c:d4:6e:9e:cf:03:95:01:20:85:48:1b:
         71:7d:06:93:b2:ac:5b:b0:a7:13:70:b4:6b:7c:7e:a0:78:47:
         c9:e7:3c:4c:82:71:13:99:e3:13:fa:50:2e:de:2a:e8:b9:91:
         12:30:66:b0:68:82:7b:34:e4:68:f9:2e:6a:d4:e1:37:78:9a:
         fb:f7:c0:9c:05:9f:c5:43:01:a3:eb:55:55:e1:79:b1:df:1f:
         4b:34:4b:be:3a:26:5f:70:54:e2:ce:fa:43:c4:3d:a3:a6:ab:
         b3:60:e2:d9:b3:93:4d:01:6f:99:18:0a:21:7a:b6:27:9c:76:
         5f:c5:62:12:42:5e:0a:6e:a9:5f:b6:ab:2a:f9:55:da:f0:23:
         1c:ee:be:97:8c:66:24:25:6c:68:ca:b7:de:1c:43:07:be:d8:
         e1:12:39:01:21:b1:ee:d7
-----BEGIN CERTIFICATE-----
MIIFgDCCA2igAwIBAgIBAjANBgkqhkiG9w0BAQsFADCBnjELMAkGA1UEBhMCQkEx
CzAJBgNVBAgTAlJTMRMwEQYDVQQHEwpCYW5qYSBMdWthMSEwHwYDVQQKExhFbGVr
dHJvdGVobmlja2kgZmFrdWx0ZXQxHDAaBgNVBAsUE0NBX05pa29sYUJsYWdvamV2
aWMxDTALBgNVBAMTBFJPT1QxHTAbBgkqhkiG9w0BCQEWDlJPT1RAZXRmYmwubmV0
MB4XDTE5MDMyMDA3MTcxM1oXDTE5MDYxODA3MTcxM1owgZMxCzAJBgNVBAYTAkJB
MQswCQYDVQQIEwJSUzEhMB8GA1UEChMYRWxla3Ryb3RlaG5pY2tpIGZha3VsdGV0
MRwwGgYDVQQLFBNDQV9OaWtvbGFCbGFnb2pldmljMRIwEAYDVQQDEwlrb3Jpc25p
azIxIjAgBgkqhkiG9w0BCQEWE2tvcmlzbmlrMkBldGZibC5uZXQwggEiMA0GCSqG
SIb3DQEBAQUAA4IBDwAwggEKAoIBAQCp+hvAjBjcKDRw5Yr/L1Hol3NydibmOycF
GMTxvUIakjHQtnqwYEvDfMQbpn4aAWjWxcz6GxOvabTmXN6dhbGAxhJQHi9S5qiv
+aI9iAChgANCqkSmQgt4nd4cGZFexVx63+oXcFut+iabOeLVb+VOnRYfkE9hhBvN
TdkyUTr2xOYfHliSKrzQPVQjCe9ft3FjIQWmqUAfSFj3vQost3RvK1aleALi05s1
3Atp8vYoVCIUk2xVnrD/K8odZWf7A3+NMYtM20s+oRZlGIiFYS0Q+hYkEC/RGT63
0Yq6S2Zu8n1BwCx7a2py4++9u2pO1tOeN3JQuNh2NVYUWzyXfAh/AgMBAAGjgdEw
gc4wCQYDVR0TBAIwADALBgNVHQ8EBAMCBNAwEwYDVR0lBAwwCgYIKwYBBQUHAwIw
LAYJYIZIAYb4QgENBB8WHU9wZW5TU0wgR2VuZXJhdGVkIENlcnRpZmljYXRlMB0G
A1UdDgQWBBSx9PYY/4IcHlBfaTTnDpeAGUBydTAfBgNVHSMEGDAWgBRqkCwKEj3G
ruXMjRxQEZGTXS4NPjAxBgNVHR8EKjAoMCagJKAihiBodHRwOi8vMTkyLjE2OC4y
MS44OS9yb290Y3JsLnBlbTANBgkqhkiG9w0BAQsFAAOCAgEA1FMZhYN7jn7TcyXm
oLi+GbwTW/BmF6r9FigB6Cupt/8s8vAC97uibs4GIbr3e5oOpcFNvrs4Uk+G6hYT
JFc4Vwm8tR3uL2EkpHPySVneIYhL6vBJRqL6p5AIzNE0xg3f6rNJD339YfP/q0G2
poxgD96ojojAEKDo5AddHPRHsXu8leAHx+/cvD78yVw7PiSqdbWgdixkabsM2al3
Tas7cq65vGeursNIGsMSnFS/8Wq9XVl52T3saqZ3Y3RaiFY2INNriCa8qh2PCbym
e/RzbYrjBjVwCCAe7oivvdEjdBz2SwPldR4XAIodBY3AfbiaN1APdSuPnp0hEsMZ
RHyIAHLf4S7fzHTDgvkCqJT9o1pFHJ2MM1Q6NkNpwU8se+rJWu8OeyBez9Nv37Tg
1jlFIyQ6Gjijjjrig8LQUkHsKLLBpUUKAsvKKTCCdQQg6Pft8z1y68NRYvaLydKf
LNRuns8DlQEghUgbcX0Gk7KsW7CnE3C0a3x+oHhHyec8TIJxE5njE/pQLt4q6LmR
EjBmsGiCezTkaPkuatThN3ia+/fAnAWfxUMBo+tVVeF5sd8fSzRLvjomX3BU4s76
Q8Q9o6ars2Di2bOTTQFvmRgKIXq2J5x2X8ViEkJeCm6pX7arKvlV2vAjHO6+l4xm
JCVsaMq33hxDB77Y4RI5ASGx7tc=
-----END CERTIFICATE-----
