Certificate:
    Data:
        Version: 3 (0x2)
        Serial Number: 5 (0x5)
    Signature Algorithm: sha256WithRSAEncryption
        Issuer: C=BA, ST=RS, L=Banja Luka, O=Elektrotehnicki fakultet, OU=CA_NikolaBlagojevic, CN=ROOT/emailAddress=ROOT@etfbl.net
        Validity
            Not Before: Mar 20 07:21:16 2019 GMT
            Not After : Mar 23 07:21:16 2019 GMT
        Subject: C=BA, ST=RS, O=Elektrotehnicki fakultet, OU=CA_NikolaBlagojevic, CN=korisnik5/emailAddress=korisnik5@etfbl.net
        Subject Public Key Info:
            Public Key Algorithm: rsaEncryption
                Public-Key: (2048 bit)
                Modulus:
                    00:b4:a8:bb:6e:74:a1:3d:d2:e0:25:69:72:d1:e1:
                    a2:3d:03:40:4e:c3:20:26:f7:50:49:62:e4:1f:3e:
                    87:54:2a:4d:bc:84:91:e3:ae:67:41:dc:27:dd:59:
                    0a:b7:cc:3b:69:24:d9:c7:d2:c8:6d:cf:80:2b:61:
                    68:13:c8:cd:32:41:8e:b3:36:1a:f7:89:36:03:0c:
                    37:af:20:9f:d0:0d:09:f8:db:fe:de:56:34:70:74:
                    92:55:b2:2a:12:3f:48:2f:f7:21:ed:33:a9:3b:ef:
                    e0:9c:84:8e:ee:17:39:e5:60:55:f8:4d:3c:41:37:
                    c1:1e:ad:69:24:b1:55:7b:eb:86:d9:9a:ce:a4:6d:
                    3c:57:36:64:8a:a5:0b:3b:e7:b8:43:54:df:b5:ed:
                    ff:59:2f:e2:63:94:39:c9:4e:4e:67:a0:70:16:1f:
                    c5:e1:bb:a8:4a:44:30:de:a6:be:49:16:aa:3f:59:
                    ab:04:14:06:2b:ca:15:de:f6:f5:c2:bd:b8:25:ad:
                    52:55:26:87:93:f8:af:38:ce:c5:f9:fb:3b:fa:d1:
                    38:91:12:d6:ef:f7:20:ea:e4:44:10:d7:76:a0:1e:
                    84:f3:6e:22:fb:06:df:34:b0:69:77:fa:a8:9b:89:
                    84:0f:67:36:bf:0c:6d:7b:9b:58:87:48:b4:e0:13:
                    20:6b
                Exponent: 65537 (0x10001)
        X509v3 extensions:
            X509v3 Basic Constraints: 
                CA:FALSE
            X509v3 Key Usage: 
                Digital Signature, Non Repudiation, Data Encipherment
            X509v3 Extended Key Usage: 
                TLS Web Client Authentication
            Netscape Comment: 
                OpenSSL Generated Certificate
            X509v3 Subject Key Identifier: 
                43:42:E1:C7:D7:32:8F:39:55:AC:2E:E6:AB:7E:EF:10:F3:C1:48:D2
            X509v3 Authority Key Identifier: 
                keyid:6A:90:2C:0A:12:3D:C6:AE:E5:CC:8D:1C:50:11:91:93:5D:2E:0D:3E

            X509v3 CRL Distribution Points: 

                Full Name:
                  URI:http://192.168.21.89/rootcrl.pem

    Signature Algorithm: sha256WithRSAEncryption
         22:6b:14:e1:56:5f:c5:8e:8f:9a:45:3c:5a:1c:6e:ca:97:0c:
         04:d6:9e:ca:b2:c0:0e:1e:33:01:11:ab:3c:f5:2f:d4:81:29:
         22:c4:ed:ba:8f:37:be:8d:cd:90:b6:eb:4e:49:49:b3:8a:08:
         78:6a:da:83:f3:f9:9c:90:f5:92:c7:c2:9e:dd:a0:61:3a:a6:
         e5:6c:d8:99:e8:26:03:a0:ce:e9:db:a1:0b:6c:a2:46:9d:83:
         85:bb:6f:47:af:20:42:3d:cc:c7:27:67:25:52:ed:61:d3:75:
         00:79:83:62:15:86:72:df:49:c4:91:9f:6a:6d:ef:ec:91:6d:
         3a:7d:87:fc:30:f5:fa:6a:27:73:fa:2c:8c:50:cc:ca:7d:9e:
         d0:c5:c9:30:cf:7d:97:77:1e:e0:a7:84:34:3b:d2:f0:bf:2f:
         2b:7e:79:8d:cf:9d:ce:eb:c6:2d:ca:b1:53:69:25:e3:72:ff:
         f4:ad:07:77:0d:ba:56:9c:99:82:e8:2f:28:1d:54:c1:62:b9:
         0f:b2:3c:4a:e6:d4:f2:7a:aa:3d:4a:4b:0e:e6:f6:5e:ab:77:
         56:a3:3d:1f:cf:c3:4e:d4:dd:b6:2d:4f:93:97:fd:c0:db:99:
         55:4e:93:8e:a3:b9:fc:41:92:ce:c6:62:e9:18:62:37:30:97:
         1e:10:b5:b3:32:ac:ab:59:75:4c:6d:8b:60:4e:e6:6f:8a:e9:
         f9:09:0d:ab:70:ea:d2:86:a8:fa:6f:ad:1f:ed:9d:fe:f7:fb:
         70:92:f6:16:25:0e:da:e3:f6:f6:65:ff:b8:3d:00:f5:0a:17:
         86:ca:09:73:47:f2:8a:d9:be:f9:c7:d5:fe:12:f7:4f:0c:7f:
         b3:c0:e0:57:db:20:4f:b1:57:8c:d8:52:67:d2:08:c9:18:38:
         23:50:b6:7e:a0:05:37:61:f9:bd:f4:61:d2:5d:ad:c6:48:41:
         10:92:15:57:8b:56:dc:27:ce:15:7e:ae:26:22:19:35:6d:9f:
         11:71:1b:2e:08:8f:26:81:a0:8e:5d:09:fc:6a:63:65:a3:49:
         31:ff:1f:92:58:c6:b4:d7:30:9b:c1:76:b0:82:e9:9d:5b:da:
         84:fa:aa:da:a5:1d:0c:74:c2:4c:75:b5:77:db:4f:f2:8f:b5:
         a3:ce:d4:6f:a2:e7:81:9e:f3:ab:21:d3:f8:8d:4b:13:48:b4:
         29:7a:43:28:97:09:32:43:6d:4e:b6:1b:8b:0c:a4:05:01:eb:
         4a:9f:a3:b8:43:d3:ce:14:83:a7:bb:85:44:ee:3c:e7:c0:b5:
         e4:cc:70:52:f5:de:60:d4:8b:83:75:0c:c6:ae:f7:02:4b:c0:
         3e:52:1e:79:da:6a:c3:53
-----BEGIN CERTIFICATE-----
MIIFgDCCA2igAwIBAgIBBTANBgkqhkiG9w0BAQsFADCBnjELMAkGA1UEBhMCQkEx
CzAJBgNVBAgTAlJTMRMwEQYDVQQHEwpCYW5qYSBMdWthMSEwHwYDVQQKExhFbGVr
dHJvdGVobmlja2kgZmFrdWx0ZXQxHDAaBgNVBAsUE0NBX05pa29sYUJsYWdvamV2
aWMxDTALBgNVBAMTBFJPT1QxHTAbBgkqhkiG9w0BCQEWDlJPT1RAZXRmYmwubmV0
MB4XDTE5MDMyMDA3MjExNloXDTE5MDMyMzA3MjExNlowgZMxCzAJBgNVBAYTAkJB
MQswCQYDVQQIEwJSUzEhMB8GA1UEChMYRWxla3Ryb3RlaG5pY2tpIGZha3VsdGV0
MRwwGgYDVQQLFBNDQV9OaWtvbGFCbGFnb2pldmljMRIwEAYDVQQDEwlrb3Jpc25p
azUxIjAgBgkqhkiG9w0BCQEWE2tvcmlzbmlrNUBldGZibC5uZXQwggEiMA0GCSqG
SIb3DQEBAQUAA4IBDwAwggEKAoIBAQC0qLtudKE90uAlaXLR4aI9A0BOwyAm91BJ
YuQfPodUKk28hJHjrmdB3CfdWQq3zDtpJNnH0shtz4ArYWgTyM0yQY6zNhr3iTYD
DDevIJ/QDQn42/7eVjRwdJJVsioSP0gv9yHtM6k77+CchI7uFznlYFX4TTxBN8Ee
rWkksVV764bZms6kbTxXNmSKpQs757hDVN+17f9ZL+JjlDnJTk5noHAWH8Xhu6hK
RDDepr5JFqo/WasEFAYryhXe9vXCvbglrVJVJoeT+K84zsX5+zv60TiREtbv9yDq
5EQQ13agHoTzbiL7Bt80sGl3+qibiYQPZza/DG17m1iHSLTgEyBrAgMBAAGjgdEw
gc4wCQYDVR0TBAIwADALBgNVHQ8EBAMCBNAwEwYDVR0lBAwwCgYIKwYBBQUHAwIw
LAYJYIZIAYb4QgENBB8WHU9wZW5TU0wgR2VuZXJhdGVkIENlcnRpZmljYXRlMB0G
A1UdDgQWBBRDQuHH1zKPOVWsLuarfu8Q88FI0jAfBgNVHSMEGDAWgBRqkCwKEj3G
ruXMjRxQEZGTXS4NPjAxBgNVHR8EKjAoMCagJKAihiBodHRwOi8vMTkyLjE2OC4y
MS44OS9yb290Y3JsLnBlbTANBgkqhkiG9w0BAQsFAAOCAgEAImsU4VZfxY6PmkU8
WhxuypcMBNaeyrLADh4zARGrPPUv1IEpIsTtuo83vo3NkLbrTklJs4oIeGrag/P5
nJD1ksfCnt2gYTqm5WzYmegmA6DO6duhC2yiRp2DhbtvR68gQj3MxydnJVLtYdN1
AHmDYhWGct9JxJGfam3v7JFtOn2H/DD1+monc/osjFDMyn2e0MXJMM99l3ce4KeE
NDvS8L8vK355jc+dzuvGLcqxU2kl43L/9K0Hdw26VpyZgugvKB1UwWK5D7I8SubU
8nqqPUpLDub2Xqt3VqM9H8/DTtTdti1Pk5f9wNuZVU6TjqO5/EGSzsZi6RhiNzCX
HhC1szKsq1l1TG2LYE7mb4rp+QkNq3Dq0oao+m+tH+2d/vf7cJL2FiUO2uP29mX/
uD0A9QoXhsoJc0fyitm++cfV/hL3Twx/s8DgV9sgT7FXjNhSZ9IIyRg4I1C2fqAF
N2H5vfRh0l2txkhBEJIVV4tW3CfOFX6uJiIZNW2fEXEbLgiPJoGgjl0J/GpjZaNJ
Mf8fkljGtNcwm8F2sILpnVvahPqq2qUdDHTCTHW1d9tP8o+1o87Ub6LngZ7zqyHT
+I1LE0i0KXpDKJcJMkNtTrYbiwykBQHrSp+juEPTzhSDp7uFRO4858C15MxwUvXe
YNSLg3UMxq73AkvAPlIeedpqw1M=
-----END CERTIFICATE-----
