Certificate:
    Data:
        Version: 3 (0x2)
        Serial Number: 3 (0x3)
    Signature Algorithm: sha256WithRSAEncryption
        Issuer: C=BA, ST=RS, L=Banja Luka, O=Elektrotehnicki fakultet, OU=CA_NikolaBlagojevic, CN=ROOT/emailAddress=ROOT@etfbl.net
        Validity
            Not Before: Mar 20 07:17:48 2019 GMT
            Not After : Jun 18 07:17:48 2019 GMT
        Subject: C=BA, ST=RS, O=Elektrotehnicki fakultet, OU=CA_NikolaBlagojevic, CN=korisnik3/emailAddress=korisnik3@etfbl.net
        Subject Public Key Info:
            Public Key Algorithm: rsaEncryption
                Public-Key: (2048 bit)
                Modulus:
                    00:c3:5e:bb:b5:39:6b:04:d0:62:0d:74:72:05:f2:
                    66:e8:a5:eb:8b:e7:99:74:cf:b5:62:67:1a:34:dd:
                    a1:d6:66:6a:81:87:73:4e:c2:80:fc:31:f0:7f:4d:
                    e7:14:ee:67:45:57:b2:ca:8f:18:8d:2a:44:a5:96:
                    e4:08:72:ea:1a:00:59:03:92:76:fc:ec:7c:36:9c:
                    c1:5e:25:37:52:49:83:cd:87:d5:41:12:04:29:80:
                    49:63:02:6a:2b:75:dd:dd:59:05:ab:9f:22:81:eb:
                    22:8a:ba:ff:47:2a:63:6b:4e:b9:ca:31:c4:30:45:
                    0d:b8:9d:4d:5e:1e:0a:8d:54:6d:55:1c:1c:ee:74:
                    35:b9:21:63:90:97:33:54:e7:89:80:80:f6:b8:3e:
                    f2:b8:fc:b5:4c:e5:b4:39:57:f1:90:6e:1e:ae:32:
                    54:44:2c:82:35:91:c0:50:22:69:ef:c9:64:c6:e0:
                    42:3b:df:75:e8:87:b4:f1:52:4c:32:30:c9:3f:83:
                    27:8b:0b:8e:1c:a1:68:bf:bc:0e:f2:59:c3:a7:b0:
                    1d:f4:79:34:f1:a3:02:2d:4a:f9:1d:b8:8a:b3:fd:
                    61:5d:de:69:b6:ea:e3:68:1c:f5:14:cb:81:9a:af:
                    e6:da:ef:c6:78:f1:ed:1d:34:0c:f8:f2:8f:ce:5e:
                    1c:4d
                Exponent: 65537 (0x10001)
        X509v3 extensions:
            X509v3 Basic Constraints: 
                CA:FALSE
            X509v3 Key Usage: 
                Digital Signature, Non Repudiation, Data Encipherment
            X509v3 Extended Key Usage: 
                TLS Web Client Authentication
            Netscape Comment: 
                OpenSSL Generated Certificate
            X509v3 Subject Key Identifier: 
                11:60:97:34:6F:AF:DD:C8:8A:2F:99:12:E8:79:5B:2C:2E:95:C9:90
            X509v3 Authority Key Identifier: 
                keyid:6A:90:2C:0A:12:3D:C6:AE:E5:CC:8D:1C:50:11:91:93:5D:2E:0D:3E

            X509v3 CRL Distribution Points: 

                Full Name:
                  URI:http://192.168.21.89/rootcrl.pem

    Signature Algorithm: sha256WithRSAEncryption
         13:2e:97:bd:a0:b8:ee:5c:cb:c0:61:2f:0b:a7:55:4f:1d:71:
         9a:d4:27:35:c0:8a:fe:79:8a:6f:39:9a:ed:08:df:e9:d7:ca:
         6a:a3:d7:0b:12:4a:cb:ec:97:3b:aa:68:1a:8e:9f:3b:23:86:
         a5:0e:3d:c2:1c:ae:49:f7:bf:04:67:6f:c5:a8:d4:a3:a9:6a:
         8a:bd:e9:39:18:b3:b1:ef:36:04:7d:3c:c4:92:a9:79:2d:7a:
         cd:2e:b8:ff:58:d7:af:ae:f1:b4:56:32:26:9f:6a:4d:ba:6b:
         46:c7:51:30:cd:23:ac:84:9c:a5:54:e7:b8:87:02:20:88:76:
         4b:ed:99:b0:15:03:4a:e2:bc:d9:5b:5d:fe:74:69:2f:9b:79:
         7d:73:a7:de:23:b7:98:77:21:cb:87:4c:e4:fd:04:c2:15:66:
         a4:12:31:1d:43:10:f7:c8:77:fd:ad:ec:da:e3:6e:3e:9b:a0:
         d4:5f:58:6e:89:b8:7b:73:e1:61:95:83:a4:09:ac:c1:4d:e5:
         53:14:63:4b:63:66:61:bf:ff:ab:14:5c:46:b4:b1:85:f2:cd:
         3b:97:f8:a9:b7:89:2d:ee:05:17:72:16:72:ca:10:b2:46:8c:
         97:78:90:41:ef:51:09:ab:32:b0:71:7b:f1:80:97:aa:0e:93:
         cd:22:09:81:19:f4:4f:3d:9f:d6:43:69:32:2e:23:6b:54:83:
         49:fd:40:33:c5:7e:04:2e:2f:21:95:d0:d4:b8:3c:81:1d:ba:
         7d:aa:51:eb:f4:34:44:5a:1f:08:bf:79:2d:aa:f4:c2:16:cf:
         ca:d1:ed:a6:50:81:75:2a:19:b2:76:34:ea:ff:2e:45:c1:38:
         7f:53:ef:be:6f:87:60:df:90:b7:90:25:93:c0:5a:b1:d2:fd:
         d7:32:f2:50:ad:09:a3:66:53:17:5a:c9:1b:b1:c3:3e:94:90:
         12:28:9d:4b:84:9d:fe:c9:8b:34:ef:70:b3:20:11:92:85:0a:
         78:b4:e2:11:3f:17:12:fb:f8:f7:6a:05:d5:de:cc:89:53:41:
         6f:db:15:03:c0:5d:b3:1f:f1:0d:91:42:8b:69:ce:ed:c1:77:
         d2:1d:ac:8d:a1:7e:44:a3:a1:0e:44:57:00:cf:49:b3:b8:42:
         e7:e4:20:da:23:db:f5:fd:5d:73:a2:6a:79:7a:55:27:62:63:
         7c:e7:db:7e:41:fe:09:bd:34:81:48:0a:52:93:c6:04:33:a2:
         75:7d:aa:fa:98:02:45:12:42:51:4f:74:93:45:ae:c4:05:b9:
         b0:4c:65:1a:c9:56:cd:9d:85:55:cf:a8:e0:3e:49:80:1d:d5:
         81:71:ef:b7:05:10:8f:c1
-----BEGIN CERTIFICATE-----
MIIFgDCCA2igAwIBAgIBAzANBgkqhkiG9w0BAQsFADCBnjELMAkGA1UEBhMCQkEx
CzAJBgNVBAgTAlJTMRMwEQYDVQQHEwpCYW5qYSBMdWthMSEwHwYDVQQKExhFbGVr
dHJvdGVobmlja2kgZmFrdWx0ZXQxHDAaBgNVBAsUE0NBX05pa29sYUJsYWdvamV2
aWMxDTALBgNVBAMTBFJPT1QxHTAbBgkqhkiG9w0BCQEWDlJPT1RAZXRmYmwubmV0
MB4XDTE5MDMyMDA3MTc0OFoXDTE5MDYxODA3MTc0OFowgZMxCzAJBgNVBAYTAkJB
MQswCQYDVQQIEwJSUzEhMB8GA1UEChMYRWxla3Ryb3RlaG5pY2tpIGZha3VsdGV0
MRwwGgYDVQQLFBNDQV9OaWtvbGFCbGFnb2pldmljMRIwEAYDVQQDEwlrb3Jpc25p
azMxIjAgBgkqhkiG9w0BCQEWE2tvcmlzbmlrM0BldGZibC5uZXQwggEiMA0GCSqG
SIb3DQEBAQUAA4IBDwAwggEKAoIBAQDDXru1OWsE0GINdHIF8mbopeuL55l0z7Vi
Zxo03aHWZmqBh3NOwoD8MfB/TecU7mdFV7LKjxiNKkSlluQIcuoaAFkDknb87Hw2
nMFeJTdSSYPNh9VBEgQpgEljAmordd3dWQWrnyKB6yKKuv9HKmNrTrnKMcQwRQ24
nU1eHgqNVG1VHBzudDW5IWOQlzNU54mAgPa4PvK4/LVM5bQ5V/GQbh6uMlRELII1
kcBQImnvyWTG4EI733Xoh7TxUkwyMMk/gyeLC44coWi/vA7yWcOnsB30eTTxowIt
SvkduIqz/WFd3mm26uNoHPUUy4Gar+ba78Z48e0dNAz48o/OXhxNAgMBAAGjgdEw
gc4wCQYDVR0TBAIwADALBgNVHQ8EBAMCBNAwEwYDVR0lBAwwCgYIKwYBBQUHAwIw
LAYJYIZIAYb4QgENBB8WHU9wZW5TU0wgR2VuZXJhdGVkIENlcnRpZmljYXRlMB0G
A1UdDgQWBBQRYJc0b6/dyIovmRLoeVssLpXJkDAfBgNVHSMEGDAWgBRqkCwKEj3G
ruXMjRxQEZGTXS4NPjAxBgNVHR8EKjAoMCagJKAihiBodHRwOi8vMTkyLjE2OC4y
MS44OS9yb290Y3JsLnBlbTANBgkqhkiG9w0BAQsFAAOCAgEAEy6XvaC47lzLwGEv
C6dVTx1xmtQnNcCK/nmKbzma7Qjf6dfKaqPXCxJKy+yXO6poGo6fOyOGpQ49whyu
Sfe/BGdvxajUo6lqir3pORizse82BH08xJKpeS16zS64/1jXr67xtFYyJp9qTbpr
RsdRMM0jrIScpVTnuIcCIIh2S+2ZsBUDSuK82Vtd/nRpL5t5fXOn3iO3mHchy4dM
5P0EwhVmpBIxHUMQ98h3/a3s2uNuPpug1F9Ybom4e3PhYZWDpAmswU3lUxRjS2Nm
Yb//qxRcRrSxhfLNO5f4qbeJLe4FF3IWcsoQskaMl3iQQe9RCasysHF78YCXqg6T
zSIJgRn0Tz2f1kNpMi4ja1SDSf1AM8V+BC4vIZXQ1Lg8gR26fapR6/Q0RFofCL95
Lar0whbPytHtplCBdSoZsnY06v8uRcE4f1Pvvm+HYN+Qt5Alk8BasdL91zLyUK0J
o2ZTF1rJG7HDPpSQEiidS4Sd/smLNO9wsyARkoUKeLTiET8XEvv492oF1d7MiVNB
b9sVA8Bdsx/xDZFCi2nO7cF30h2sjaF+RKOhDkRXAM9Js7hC5+Qg2iPb9f1dc6Jq
eXpVJ2JjfOfbfkH+Cb00gUgKUpPGBDOidX2q+pgCRRJCUU90k0WuxAW5sExlGslW
zZ2FVc+o4D5JgB3VgXHvtwUQj8E=
-----END CERTIFICATE-----
